
vrs_cvicenie_08.elf:     file format elf32-littlearm

Sections:
Idx Name          Size      VMA       LMA       File off  Algn
  0 .isr_vector   00000188  08000000  08000000  00010000  2**0
                  CONTENTS, ALLOC, LOAD, READONLY, DATA
  1 .text         000013b8  08000188  08000188  00010188  2**2
                  CONTENTS, ALLOC, LOAD, READONLY, CODE
  2 .rodata       0000003c  08001540  08001540  00011540  2**2
                  CONTENTS, ALLOC, LOAD, READONLY, DATA
  3 .ARM.extab    00000000  0800157c  0800157c  00020004  2**0
                  CONTENTS
  4 .ARM          00000000  0800157c  0800157c  00020004  2**0
                  CONTENTS
  5 .preinit_array 00000000  0800157c  0800157c  00020004  2**0
                  CONTENTS, ALLOC, LOAD, DATA
  6 .init_array   00000004  0800157c  0800157c  0001157c  2**2
                  CONTENTS, ALLOC, LOAD, DATA
  7 .fini_array   00000004  08001580  08001580  00011580  2**2
                  CONTENTS, ALLOC, LOAD, DATA
  8 .data         00000004  20000000  08001584  00020000  2**2
                  CONTENTS, ALLOC, LOAD, DATA
  9 .ccmram       00000000  10000000  10000000  00020004  2**0
                  CONTENTS
 10 .bss          00000030  20000004  20000004  00020004  2**2
                  ALLOC
 11 ._user_heap_stack 00000604  20000034  20000034  00020004  2**0
                  ALLOC
 12 .ARM.attributes 00000030  00000000  00000000  00020004  2**0
                  CONTENTS, READONLY
 13 .debug_info   000081f2  00000000  00000000  00020034  2**0
                  CONTENTS, READONLY, DEBUGGING, OCTETS
 14 .debug_abbrev 0000170b  00000000  00000000  00028226  2**0
                  CONTENTS, READONLY, DEBUGGING, OCTETS
 15 .debug_aranges 00000558  00000000  00000000  00029938  2**3
                  CONTENTS, READONLY, DEBUGGING, OCTETS
 16 .debug_ranges 000004b0  00000000  00000000  00029e90  2**3
                  CONTENTS, READONLY, DEBUGGING, OCTETS
 17 .debug_macro  00016707  00000000  00000000  0002a340  2**0
                  CONTENTS, READONLY, DEBUGGING, OCTETS
 18 .debug_line   000053fc  00000000  00000000  00040a47  2**0
                  CONTENTS, READONLY, DEBUGGING, OCTETS
 19 .debug_str    0007751c  00000000  00000000  00045e43  2**0
                  CONTENTS, READONLY, DEBUGGING, OCTETS
 20 .comment      00000053  00000000  00000000  000bd35f  2**0
                  CONTENTS, READONLY
 21 .debug_frame  00001438  00000000  00000000  000bd3b4  2**2
                  CONTENTS, READONLY, DEBUGGING, OCTETS

Disassembly of section .text:

08000188 <__do_global_dtors_aux>:
 8000188:	b510      	push	{r4, lr}
 800018a:	4c05      	ldr	r4, [pc, #20]	; (80001a0 <__do_global_dtors_aux+0x18>)
 800018c:	7823      	ldrb	r3, [r4, #0]
 800018e:	b933      	cbnz	r3, 800019e <__do_global_dtors_aux+0x16>
 8000190:	4b04      	ldr	r3, [pc, #16]	; (80001a4 <__do_global_dtors_aux+0x1c>)
 8000192:	b113      	cbz	r3, 800019a <__do_global_dtors_aux+0x12>
 8000194:	4804      	ldr	r0, [pc, #16]	; (80001a8 <__do_global_dtors_aux+0x20>)
 8000196:	f3af 8000 	nop.w
 800019a:	2301      	movs	r3, #1
 800019c:	7023      	strb	r3, [r4, #0]
 800019e:	bd10      	pop	{r4, pc}
 80001a0:	20000004 	.word	0x20000004
 80001a4:	00000000 	.word	0x00000000
 80001a8:	08001528 	.word	0x08001528

080001ac <frame_dummy>:
 80001ac:	b508      	push	{r3, lr}
 80001ae:	4b03      	ldr	r3, [pc, #12]	; (80001bc <frame_dummy+0x10>)
 80001b0:	b11b      	cbz	r3, 80001ba <frame_dummy+0xe>
 80001b2:	4903      	ldr	r1, [pc, #12]	; (80001c0 <frame_dummy+0x14>)
 80001b4:	4803      	ldr	r0, [pc, #12]	; (80001c4 <frame_dummy+0x18>)
 80001b6:	f3af 8000 	nop.w
 80001ba:	bd08      	pop	{r3, pc}
 80001bc:	00000000 	.word	0x00000000
 80001c0:	20000008 	.word	0x20000008
 80001c4:	08001528 	.word	0x08001528

080001c8 <LL_GPIO_SetOutputPin>:
  *         @arg @ref LL_GPIO_PIN_15
  *         @arg @ref LL_GPIO_PIN_ALL
  * @retval None
  */
__STATIC_INLINE void LL_GPIO_SetOutputPin(GPIO_TypeDef *GPIOx, uint32_t PinMask)
{
 80001c8:	b480      	push	{r7}
 80001ca:	b083      	sub	sp, #12
 80001cc:	af00      	add	r7, sp, #0
 80001ce:	6078      	str	r0, [r7, #4]
 80001d0:	6039      	str	r1, [r7, #0]
  WRITE_REG(GPIOx->BSRR, PinMask);
 80001d2:	687b      	ldr	r3, [r7, #4]
 80001d4:	683a      	ldr	r2, [r7, #0]
 80001d6:	619a      	str	r2, [r3, #24]
}
 80001d8:	bf00      	nop
 80001da:	370c      	adds	r7, #12
 80001dc:	46bd      	mov	sp, r7
 80001de:	f85d 7b04 	ldr.w	r7, [sp], #4
 80001e2:	4770      	bx	lr

080001e4 <LL_GPIO_ResetOutputPin>:
  *         @arg @ref LL_GPIO_PIN_15
  *         @arg @ref LL_GPIO_PIN_ALL
  * @retval None
  */
__STATIC_INLINE void LL_GPIO_ResetOutputPin(GPIO_TypeDef *GPIOx, uint32_t PinMask)
{
 80001e4:	b480      	push	{r7}
 80001e6:	b083      	sub	sp, #12
 80001e8:	af00      	add	r7, sp, #0
 80001ea:	6078      	str	r0, [r7, #4]
 80001ec:	6039      	str	r1, [r7, #0]
  WRITE_REG(GPIOx->BRR, PinMask);
 80001ee:	687b      	ldr	r3, [r7, #4]
 80001f0:	683a      	ldr	r2, [r7, #0]
 80001f2:	629a      	str	r2, [r3, #40]	; 0x28
}
 80001f4:	bf00      	nop
 80001f6:	370c      	adds	r7, #12
 80001f8:	46bd      	mov	sp, r7
 80001fa:	f85d 7b04 	ldr.w	r7, [sp], #4
 80001fe:	4770      	bx	lr

08000200 <resetSegments>:
extern DisplayDigitData_ DisplayDigit_0;
extern DisplayDigitData_ DisplayDigit_1;
extern DisplayDigitData_ DisplayDigit_2;
extern DisplayDigitData_ DisplayDigit_3;
static uint8_t indexer = 0;
void resetSegments(void) {
 8000200:	b580      	push	{r7, lr}
 8000202:	af00      	add	r7, sp, #0
	SEGMENT_A_OFF;
 8000204:	2102      	movs	r1, #2
 8000206:	f04f 4090 	mov.w	r0, #1207959552	; 0x48000000
 800020a:	f7ff ffdd 	bl	80001c8 <LL_GPIO_SetOutputPin>
	SEGMENT_B_OFF;
 800020e:	2101      	movs	r1, #1
 8000210:	f04f 4090 	mov.w	r0, #1207959552	; 0x48000000
 8000214:	f7ff ffd8 	bl	80001c8 <LL_GPIO_SetOutputPin>
	SEGMENT_C_OFF;
 8000218:	f44f 7180 	mov.w	r1, #256	; 0x100
 800021c:	f04f 4090 	mov.w	r0, #1207959552	; 0x48000000
 8000220:	f7ff ffd2 	bl	80001c8 <LL_GPIO_SetOutputPin>
	SEGMENT_D_OFF;
 8000224:	2120      	movs	r1, #32
 8000226:	480c      	ldr	r0, [pc, #48]	; (8000258 <resetSegments+0x58>)
 8000228:	f7ff ffce 	bl	80001c8 <LL_GPIO_SetOutputPin>
	SEGMENT_E_OFF;
 800022c:	f44f 6100 	mov.w	r1, #2048	; 0x800
 8000230:	f04f 4090 	mov.w	r0, #1207959552	; 0x48000000
 8000234:	f7ff ffc8 	bl	80001c8 <LL_GPIO_SetOutputPin>
	SEGMENT_F_OFF;
 8000238:	2108      	movs	r1, #8
 800023a:	f04f 4090 	mov.w	r0, #1207959552	; 0x48000000
 800023e:	f7ff ffc3 	bl	80001c8 <LL_GPIO_SetOutputPin>
	SEGMENT_G_OFF;
 8000242:	2110      	movs	r1, #16
 8000244:	4804      	ldr	r0, [pc, #16]	; (8000258 <resetSegments+0x58>)
 8000246:	f7ff ffbf 	bl	80001c8 <LL_GPIO_SetOutputPin>
	SEGMENT_DP_OFF;
 800024a:	2102      	movs	r1, #2
 800024c:	4802      	ldr	r0, [pc, #8]	; (8000258 <resetSegments+0x58>)
 800024e:	f7ff ffbb 	bl	80001c8 <LL_GPIO_SetOutputPin>
}
 8000252:	bf00      	nop
 8000254:	bd80      	pop	{r7, pc}
 8000256:	bf00      	nop
 8000258:	48000400 	.word	0x48000400

0800025c <resetDigits>:
	SEGMENT_F_ON;
	SEGMENT_G_ON;
	SEGMENT_DP_ON;
}

void resetDigits(void) {
 800025c:	b580      	push	{r7, lr}
 800025e:	af00      	add	r7, sp, #0
	DIGIT_0_OFF;
 8000260:	2120      	movs	r1, #32
 8000262:	f04f 4090 	mov.w	r0, #1207959552	; 0x48000000
 8000266:	f7ff ffbd 	bl	80001e4 <LL_GPIO_ResetOutputPin>
	DIGIT_1_OFF;
 800026a:	2110      	movs	r1, #16
 800026c:	f04f 4090 	mov.w	r0, #1207959552	; 0x48000000
 8000270:	f7ff ffb8 	bl	80001e4 <LL_GPIO_ResetOutputPin>
	DIGIT_2_OFF;
 8000274:	2140      	movs	r1, #64	; 0x40
 8000276:	f04f 4090 	mov.w	r0, #1207959552	; 0x48000000
 800027a:	f7ff ffb3 	bl	80001e4 <LL_GPIO_ResetOutputPin>
	DIGIT_3_OFF;
 800027e:	2104      	movs	r1, #4
 8000280:	f04f 4090 	mov.w	r0, #1207959552	; 0x48000000
 8000284:	f7ff ffae 	bl	80001e4 <LL_GPIO_ResetOutputPin>
	DIGIT_TIME_OFF;
 8000288:	2180      	movs	r1, #128	; 0x80
 800028a:	f04f 4090 	mov.w	r0, #1207959552	; 0x48000000
 800028e:	f7ff ffa9 	bl	80001e4 <LL_GPIO_ResetOutputPin>
}
 8000292:	bf00      	nop
 8000294:	bd80      	pop	{r7, pc}
	...

08000298 <segmentsOn>:
	DIGIT_2_ON;
	DIGIT_3_ON;
	DIGIT_TIME_ON;
}

void segmentsOn(uint8_t index, SegmentDigitStruct digitStruct) {
 8000298:	b580      	push	{r7, lr}
 800029a:	b084      	sub	sp, #16
 800029c:	af00      	add	r7, sp, #0
 800029e:	1d3b      	adds	r3, r7, #4
 80002a0:	e883 0006 	stmia.w	r3, {r1, r2}
 80002a4:	4603      	mov	r3, r0
 80002a6:	73fb      	strb	r3, [r7, #15]
//	resetSegments();
	if (digitStruct.sA)
 80002a8:	793b      	ldrb	r3, [r7, #4]
 80002aa:	2b00      	cmp	r3, #0
 80002ac:	d005      	beq.n	80002ba <segmentsOn+0x22>
		SEGMENT_A_ON;
 80002ae:	2102      	movs	r1, #2
 80002b0:	f04f 4090 	mov.w	r0, #1207959552	; 0x48000000
 80002b4:	f7ff ff96 	bl	80001e4 <LL_GPIO_ResetOutputPin>
 80002b8:	e004      	b.n	80002c4 <segmentsOn+0x2c>
	else SEGMENT_A_OFF;
 80002ba:	2102      	movs	r1, #2
 80002bc:	f04f 4090 	mov.w	r0, #1207959552	; 0x48000000
 80002c0:	f7ff ff82 	bl	80001c8 <LL_GPIO_SetOutputPin>
	if (digitStruct.sB)
 80002c4:	797b      	ldrb	r3, [r7, #5]
 80002c6:	2b00      	cmp	r3, #0
 80002c8:	d005      	beq.n	80002d6 <segmentsOn+0x3e>
		SEGMENT_B_ON;
 80002ca:	2101      	movs	r1, #1
 80002cc:	f04f 4090 	mov.w	r0, #1207959552	; 0x48000000
 80002d0:	f7ff ff88 	bl	80001e4 <LL_GPIO_ResetOutputPin>
 80002d4:	e004      	b.n	80002e0 <segmentsOn+0x48>
	else SEGMENT_B_OFF;
 80002d6:	2101      	movs	r1, #1
 80002d8:	f04f 4090 	mov.w	r0, #1207959552	; 0x48000000
 80002dc:	f7ff ff74 	bl	80001c8 <LL_GPIO_SetOutputPin>
	if (digitStruct.sC)
 80002e0:	79bb      	ldrb	r3, [r7, #6]
 80002e2:	2b00      	cmp	r3, #0
 80002e4:	d006      	beq.n	80002f4 <segmentsOn+0x5c>
		SEGMENT_C_ON;
 80002e6:	f44f 7180 	mov.w	r1, #256	; 0x100
 80002ea:	f04f 4090 	mov.w	r0, #1207959552	; 0x48000000
 80002ee:	f7ff ff79 	bl	80001e4 <LL_GPIO_ResetOutputPin>
 80002f2:	e005      	b.n	8000300 <segmentsOn+0x68>
	else SEGMENT_C_OFF;
 80002f4:	f44f 7180 	mov.w	r1, #256	; 0x100
 80002f8:	f04f 4090 	mov.w	r0, #1207959552	; 0x48000000
 80002fc:	f7ff ff64 	bl	80001c8 <LL_GPIO_SetOutputPin>
	if (digitStruct.sD)
 8000300:	79fb      	ldrb	r3, [r7, #7]
 8000302:	2b00      	cmp	r3, #0
 8000304:	d004      	beq.n	8000310 <segmentsOn+0x78>
		SEGMENT_D_ON;
 8000306:	2120      	movs	r1, #32
 8000308:	4833      	ldr	r0, [pc, #204]	; (80003d8 <segmentsOn+0x140>)
 800030a:	f7ff ff6b 	bl	80001e4 <LL_GPIO_ResetOutputPin>
 800030e:	e003      	b.n	8000318 <segmentsOn+0x80>
	else SEGMENT_D_OFF;
 8000310:	2120      	movs	r1, #32
 8000312:	4831      	ldr	r0, [pc, #196]	; (80003d8 <segmentsOn+0x140>)
 8000314:	f7ff ff58 	bl	80001c8 <LL_GPIO_SetOutputPin>
	if (digitStruct.sE)
 8000318:	7a3b      	ldrb	r3, [r7, #8]
 800031a:	2b00      	cmp	r3, #0
 800031c:	d006      	beq.n	800032c <segmentsOn+0x94>
		SEGMENT_E_ON;
 800031e:	f44f 6100 	mov.w	r1, #2048	; 0x800
 8000322:	f04f 4090 	mov.w	r0, #1207959552	; 0x48000000
 8000326:	f7ff ff5d 	bl	80001e4 <LL_GPIO_ResetOutputPin>
 800032a:	e005      	b.n	8000338 <segmentsOn+0xa0>
	else SEGMENT_E_OFF;
 800032c:	f44f 6100 	mov.w	r1, #2048	; 0x800
 8000330:	f04f 4090 	mov.w	r0, #1207959552	; 0x48000000
 8000334:	f7ff ff48 	bl	80001c8 <LL_GPIO_SetOutputPin>
	if (digitStruct.sF)
 8000338:	7a7b      	ldrb	r3, [r7, #9]
 800033a:	2b00      	cmp	r3, #0
 800033c:	d005      	beq.n	800034a <segmentsOn+0xb2>
		SEGMENT_F_ON;
 800033e:	2108      	movs	r1, #8
 8000340:	f04f 4090 	mov.w	r0, #1207959552	; 0x48000000
 8000344:	f7ff ff4e 	bl	80001e4 <LL_GPIO_ResetOutputPin>
 8000348:	e004      	b.n	8000354 <segmentsOn+0xbc>
	else SEGMENT_F_OFF;
 800034a:	2108      	movs	r1, #8
 800034c:	f04f 4090 	mov.w	r0, #1207959552	; 0x48000000
 8000350:	f7ff ff3a 	bl	80001c8 <LL_GPIO_SetOutputPin>
	if (digitStruct.sG)
 8000354:	7abb      	ldrb	r3, [r7, #10]
 8000356:	2b00      	cmp	r3, #0
 8000358:	d004      	beq.n	8000364 <segmentsOn+0xcc>
		SEGMENT_G_ON;
 800035a:	2110      	movs	r1, #16
 800035c:	481e      	ldr	r0, [pc, #120]	; (80003d8 <segmentsOn+0x140>)
 800035e:	f7ff ff41 	bl	80001e4 <LL_GPIO_ResetOutputPin>
 8000362:	e003      	b.n	800036c <segmentsOn+0xd4>
	else SEGMENT_G_OFF;
 8000364:	2110      	movs	r1, #16
 8000366:	481c      	ldr	r0, [pc, #112]	; (80003d8 <segmentsOn+0x140>)
 8000368:	f7ff ff2e 	bl	80001c8 <LL_GPIO_SetOutputPin>
	if (digitStruct.sDot)
 800036c:	7afb      	ldrb	r3, [r7, #11]
 800036e:	2b00      	cmp	r3, #0
 8000370:	d004      	beq.n	800037c <segmentsOn+0xe4>
		SEGMENT_DP_ON;
 8000372:	2102      	movs	r1, #2
 8000374:	4818      	ldr	r0, [pc, #96]	; (80003d8 <segmentsOn+0x140>)
 8000376:	f7ff ff35 	bl	80001e4 <LL_GPIO_ResetOutputPin>
 800037a:	e003      	b.n	8000384 <segmentsOn+0xec>
	else SEGMENT_DP_OFF;
 800037c:	2102      	movs	r1, #2
 800037e:	4816      	ldr	r0, [pc, #88]	; (80003d8 <segmentsOn+0x140>)
 8000380:	f7ff ff22 	bl	80001c8 <LL_GPIO_SetOutputPin>

	resetDigits();
 8000384:	f7ff ff6a 	bl	800025c <resetDigits>
	if (index == 0)
 8000388:	7bfb      	ldrb	r3, [r7, #15]
 800038a:	2b00      	cmp	r3, #0
 800038c:	d105      	bne.n	800039a <segmentsOn+0x102>
		DIGIT_0_ON;
 800038e:	2120      	movs	r1, #32
 8000390:	f04f 4090 	mov.w	r0, #1207959552	; 0x48000000
 8000394:	f7ff ff18 	bl	80001c8 <LL_GPIO_SetOutputPin>
		DIGIT_1_ON;
	else if (index == 2)
		DIGIT_2_ON;
	else if (index == 3)
		DIGIT_3_ON;
}
 8000398:	e019      	b.n	80003ce <segmentsOn+0x136>
	else if (index == 1)
 800039a:	7bfb      	ldrb	r3, [r7, #15]
 800039c:	2b01      	cmp	r3, #1
 800039e:	d105      	bne.n	80003ac <segmentsOn+0x114>
		DIGIT_1_ON;
 80003a0:	2110      	movs	r1, #16
 80003a2:	f04f 4090 	mov.w	r0, #1207959552	; 0x48000000
 80003a6:	f7ff ff0f 	bl	80001c8 <LL_GPIO_SetOutputPin>
}
 80003aa:	e010      	b.n	80003ce <segmentsOn+0x136>
	else if (index == 2)
 80003ac:	7bfb      	ldrb	r3, [r7, #15]
 80003ae:	2b02      	cmp	r3, #2
 80003b0:	d105      	bne.n	80003be <segmentsOn+0x126>
		DIGIT_2_ON;
 80003b2:	2140      	movs	r1, #64	; 0x40
 80003b4:	f04f 4090 	mov.w	r0, #1207959552	; 0x48000000
 80003b8:	f7ff ff06 	bl	80001c8 <LL_GPIO_SetOutputPin>
}
 80003bc:	e007      	b.n	80003ce <segmentsOn+0x136>
	else if (index == 3)
 80003be:	7bfb      	ldrb	r3, [r7, #15]
 80003c0:	2b03      	cmp	r3, #3
 80003c2:	d104      	bne.n	80003ce <segmentsOn+0x136>
		DIGIT_3_ON;
 80003c4:	2104      	movs	r1, #4
 80003c6:	f04f 4090 	mov.w	r0, #1207959552	; 0x48000000
 80003ca:	f7ff fefd 	bl	80001c8 <LL_GPIO_SetOutputPin>
}
 80003ce:	bf00      	nop
 80003d0:	3710      	adds	r7, #16
 80003d2:	46bd      	mov	sp, r7
 80003d4:	bd80      	pop	{r7, pc}
 80003d6:	bf00      	nop
 80003d8:	48000400 	.word	0x48000400

080003dc <displayCharOnDigit>:

void displayCharOnDigit(DisplayDigitData_ digitData) {
 80003dc:	b580      	push	{r7, lr}
 80003de:	b084      	sub	sp, #16
 80003e0:	af00      	add	r7, sp, #0
 80003e2:	80b8      	strh	r0, [r7, #4]
	SegmentDigitStruct digitStruct = GetSegmentDigit(digitData.chr);
 80003e4:	797a      	ldrb	r2, [r7, #5]
 80003e6:	f107 0308 	add.w	r3, r7, #8
 80003ea:	4611      	mov	r1, r2
 80003ec:	4618      	mov	r0, r3
 80003ee:	f000 f879 	bl	80004e4 <GetSegmentDigit>
	segmentsOn(digitData.index, digitStruct);
 80003f2:	7938      	ldrb	r0, [r7, #4]
 80003f4:	f107 0308 	add.w	r3, r7, #8
 80003f8:	e893 0006 	ldmia.w	r3, {r1, r2}
 80003fc:	f7ff ff4c 	bl	8000298 <segmentsOn>
}
 8000400:	bf00      	nop
 8000402:	3710      	adds	r7, #16
 8000404:	46bd      	mov	sp, r7
 8000406:	bd80      	pop	{r7, pc}

08000408 <updateDisplay>:
void updateDisplay(void) {
 8000408:	b580      	push	{r7, lr}
 800040a:	af00      	add	r7, sp, #0

	switch (indexer) {
 800040c:	4b30      	ldr	r3, [pc, #192]	; (80004d0 <updateDisplay+0xc8>)
 800040e:	781b      	ldrb	r3, [r3, #0]
 8000410:	2b03      	cmp	r3, #3
 8000412:	d80b      	bhi.n	800042c <updateDisplay+0x24>
 8000414:	a201      	add	r2, pc, #4	; (adr r2, 800041c <updateDisplay+0x14>)
 8000416:	f852 f023 	ldr.w	pc, [r2, r3, lsl #2]
 800041a:	bf00      	nop
 800041c:	0800043d 	.word	0x0800043d
 8000420:	08000461 	.word	0x08000461
 8000424:	08000485 	.word	0x08000485
 8000428:	080004a9 	.word	0x080004a9
	default:
		resetDigits();
 800042c:	f7ff ff16 	bl	800025c <resetDigits>
		resetSegments();
 8000430:	f7ff fee6 	bl	8000200 <resetSegments>
		indexer = 0;
 8000434:	4b26      	ldr	r3, [pc, #152]	; (80004d0 <updateDisplay+0xc8>)
 8000436:	2200      	movs	r2, #0
 8000438:	701a      	strb	r2, [r3, #0]
		break;
 800043a:	e047      	b.n	80004cc <updateDisplay+0xc4>
	case 0:
		displayCharOnDigit(DisplayDigit_0);
 800043c:	4b25      	ldr	r3, [pc, #148]	; (80004d4 <updateDisplay+0xcc>)
 800043e:	781a      	ldrb	r2, [r3, #0]
 8000440:	785b      	ldrb	r3, [r3, #1]
 8000442:	021b      	lsls	r3, r3, #8
 8000444:	431a      	orrs	r2, r3
 8000446:	2300      	movs	r3, #0
 8000448:	f362 030f 	bfi	r3, r2, #0, #16
 800044c:	4618      	mov	r0, r3
 800044e:	f7ff ffc5 	bl	80003dc <displayCharOnDigit>
		indexer++;
 8000452:	4b1f      	ldr	r3, [pc, #124]	; (80004d0 <updateDisplay+0xc8>)
 8000454:	781b      	ldrb	r3, [r3, #0]
 8000456:	3301      	adds	r3, #1
 8000458:	b2da      	uxtb	r2, r3
 800045a:	4b1d      	ldr	r3, [pc, #116]	; (80004d0 <updateDisplay+0xc8>)
 800045c:	701a      	strb	r2, [r3, #0]
		break;
 800045e:	e035      	b.n	80004cc <updateDisplay+0xc4>
	case 1:
		displayCharOnDigit(DisplayDigit_1);
 8000460:	4b1d      	ldr	r3, [pc, #116]	; (80004d8 <updateDisplay+0xd0>)
 8000462:	781a      	ldrb	r2, [r3, #0]
 8000464:	785b      	ldrb	r3, [r3, #1]
 8000466:	021b      	lsls	r3, r3, #8
 8000468:	431a      	orrs	r2, r3
 800046a:	2300      	movs	r3, #0
 800046c:	f362 030f 	bfi	r3, r2, #0, #16
 8000470:	4618      	mov	r0, r3
 8000472:	f7ff ffb3 	bl	80003dc <displayCharOnDigit>
		indexer++;
 8000476:	4b16      	ldr	r3, [pc, #88]	; (80004d0 <updateDisplay+0xc8>)
 8000478:	781b      	ldrb	r3, [r3, #0]
 800047a:	3301      	adds	r3, #1
 800047c:	b2da      	uxtb	r2, r3
 800047e:	4b14      	ldr	r3, [pc, #80]	; (80004d0 <updateDisplay+0xc8>)
 8000480:	701a      	strb	r2, [r3, #0]
		break;
 8000482:	e023      	b.n	80004cc <updateDisplay+0xc4>
	case 2:
		displayCharOnDigit(DisplayDigit_2);
 8000484:	4b15      	ldr	r3, [pc, #84]	; (80004dc <updateDisplay+0xd4>)
 8000486:	781a      	ldrb	r2, [r3, #0]
 8000488:	785b      	ldrb	r3, [r3, #1]
 800048a:	021b      	lsls	r3, r3, #8
 800048c:	431a      	orrs	r2, r3
 800048e:	2300      	movs	r3, #0
 8000490:	f362 030f 	bfi	r3, r2, #0, #16
 8000494:	4618      	mov	r0, r3
 8000496:	f7ff ffa1 	bl	80003dc <displayCharOnDigit>
		indexer++;
 800049a:	4b0d      	ldr	r3, [pc, #52]	; (80004d0 <updateDisplay+0xc8>)
 800049c:	781b      	ldrb	r3, [r3, #0]
 800049e:	3301      	adds	r3, #1
 80004a0:	b2da      	uxtb	r2, r3
 80004a2:	4b0b      	ldr	r3, [pc, #44]	; (80004d0 <updateDisplay+0xc8>)
 80004a4:	701a      	strb	r2, [r3, #0]
		break;
 80004a6:	e011      	b.n	80004cc <updateDisplay+0xc4>
	case 3:
		displayCharOnDigit(DisplayDigit_3);
 80004a8:	4b0d      	ldr	r3, [pc, #52]	; (80004e0 <updateDisplay+0xd8>)
 80004aa:	781a      	ldrb	r2, [r3, #0]
 80004ac:	785b      	ldrb	r3, [r3, #1]
 80004ae:	021b      	lsls	r3, r3, #8
 80004b0:	431a      	orrs	r2, r3
 80004b2:	2300      	movs	r3, #0
 80004b4:	f362 030f 	bfi	r3, r2, #0, #16
 80004b8:	4618      	mov	r0, r3
 80004ba:	f7ff ff8f 	bl	80003dc <displayCharOnDigit>
		indexer++;
 80004be:	4b04      	ldr	r3, [pc, #16]	; (80004d0 <updateDisplay+0xc8>)
 80004c0:	781b      	ldrb	r3, [r3, #0]
 80004c2:	3301      	adds	r3, #1
 80004c4:	b2da      	uxtb	r2, r3
 80004c6:	4b02      	ldr	r3, [pc, #8]	; (80004d0 <updateDisplay+0xc8>)
 80004c8:	701a      	strb	r2, [r3, #0]
		break;
 80004ca:	bf00      	nop

	}
}
 80004cc:	bf00      	nop
 80004ce:	bd80      	pop	{r7, pc}
 80004d0:	20000020 	.word	0x20000020
 80004d4:	20000030 	.word	0x20000030
 80004d8:	20000028 	.word	0x20000028
 80004dc:	20000024 	.word	0x20000024
 80004e0:	2000002c 	.word	0x2000002c

080004e4 <GetSegmentDigit>:
		0x3B, // Y
		0x6D, // Z*
		0x08, // _
		};

SegmentDigitStruct GetSegmentDigit(uint8_t chr) {
 80004e4:	b480      	push	{r7}
 80004e6:	b087      	sub	sp, #28
 80004e8:	af00      	add	r7, sp, #0
 80004ea:	6078      	str	r0, [r7, #4]
 80004ec:	460b      	mov	r3, r1
 80004ee:	70fb      	strb	r3, [r7, #3]
	SegmentDigitStruct result;
	if ((chr >= '0' && chr <= '9') || (chr >= 'A' && chr <= 'Z')
 80004f0:	78fb      	ldrb	r3, [r7, #3]
 80004f2:	2b2f      	cmp	r3, #47	; 0x2f
 80004f4:	d902      	bls.n	80004fc <GetSegmentDigit+0x18>
 80004f6:	78fb      	ldrb	r3, [r7, #3]
 80004f8:	2b39      	cmp	r3, #57	; 0x39
 80004fa:	d908      	bls.n	800050e <GetSegmentDigit+0x2a>
 80004fc:	78fb      	ldrb	r3, [r7, #3]
 80004fe:	2b40      	cmp	r3, #64	; 0x40
 8000500:	d902      	bls.n	8000508 <GetSegmentDigit+0x24>
 8000502:	78fb      	ldrb	r3, [r7, #3]
 8000504:	2b5a      	cmp	r3, #90	; 0x5a
 8000506:	d902      	bls.n	800050e <GetSegmentDigit+0x2a>
			|| chr == '_') {
 8000508:	78fb      	ldrb	r3, [r7, #3]
 800050a:	2b5f      	cmp	r3, #95	; 0x5f
 800050c:	d176      	bne.n	80005fc <GetSegmentDigit+0x118>
		uint8_t fontChar = 0;
 800050e:	2300      	movs	r3, #0
 8000510:	75fb      	strb	r3, [r7, #23]
		uint8_t index = 0;
 8000512:	2300      	movs	r3, #0
 8000514:	75bb      	strb	r3, [r7, #22]
		if (chr >= '0' && chr <= '9') {
 8000516:	78fb      	ldrb	r3, [r7, #3]
 8000518:	2b2f      	cmp	r3, #47	; 0x2f
 800051a:	d90a      	bls.n	8000532 <GetSegmentDigit+0x4e>
 800051c:	78fb      	ldrb	r3, [r7, #3]
 800051e:	2b39      	cmp	r3, #57	; 0x39
 8000520:	d807      	bhi.n	8000532 <GetSegmentDigit+0x4e>
			index = chr - '0';
 8000522:	78fb      	ldrb	r3, [r7, #3]
 8000524:	3b30      	subs	r3, #48	; 0x30
 8000526:	75bb      	strb	r3, [r7, #22]
			fontChar = Font_Table[FONTS_DIGITS_START + index];
 8000528:	7dbb      	ldrb	r3, [r7, #22]
 800052a:	4a43      	ldr	r2, [pc, #268]	; (8000638 <GetSegmentDigit+0x154>)
 800052c:	5cd3      	ldrb	r3, [r2, r3]
 800052e:	75fb      	strb	r3, [r7, #23]
 8000530:	e013      	b.n	800055a <GetSegmentDigit+0x76>
		} else if (chr >= 'A' && chr <= 'Z') {
 8000532:	78fb      	ldrb	r3, [r7, #3]
 8000534:	2b40      	cmp	r3, #64	; 0x40
 8000536:	d90b      	bls.n	8000550 <GetSegmentDigit+0x6c>
 8000538:	78fb      	ldrb	r3, [r7, #3]
 800053a:	2b5a      	cmp	r3, #90	; 0x5a
 800053c:	d808      	bhi.n	8000550 <GetSegmentDigit+0x6c>
			index = chr - 'A';
 800053e:	78fb      	ldrb	r3, [r7, #3]
 8000540:	3b41      	subs	r3, #65	; 0x41
 8000542:	75bb      	strb	r3, [r7, #22]
			fontChar = Font_Table[FONTS_CHARS_START + index];
 8000544:	7dbb      	ldrb	r3, [r7, #22]
 8000546:	330a      	adds	r3, #10
 8000548:	4a3b      	ldr	r2, [pc, #236]	; (8000638 <GetSegmentDigit+0x154>)
 800054a:	5cd3      	ldrb	r3, [r2, r3]
 800054c:	75fb      	strb	r3, [r7, #23]
 800054e:	e004      	b.n	800055a <GetSegmentDigit+0x76>
		} else if (chr == '_') {
 8000550:	78fb      	ldrb	r3, [r7, #3]
 8000552:	2b5f      	cmp	r3, #95	; 0x5f
 8000554:	d101      	bne.n	800055a <GetSegmentDigit+0x76>
			fontChar = Font_Table[FONTS_UNDERSCORE];
 8000556:	2308      	movs	r3, #8
 8000558:	75fb      	strb	r3, [r7, #23]
		}
		result.sA = fontChar & ConverterValue_SegmentA ? true : false;
 800055a:	2240      	movs	r2, #64	; 0x40
 800055c:	7dfb      	ldrb	r3, [r7, #23]
 800055e:	4013      	ands	r3, r2
 8000560:	b2db      	uxtb	r3, r3
 8000562:	2b00      	cmp	r3, #0
 8000564:	bf14      	ite	ne
 8000566:	2301      	movne	r3, #1
 8000568:	2300      	moveq	r3, #0
 800056a:	b2db      	uxtb	r3, r3
 800056c:	733b      	strb	r3, [r7, #12]
		result.sB = fontChar & ConverterValue_SegmentB ? true : false;
 800056e:	2220      	movs	r2, #32
 8000570:	7dfb      	ldrb	r3, [r7, #23]
 8000572:	4013      	ands	r3, r2
 8000574:	b2db      	uxtb	r3, r3
 8000576:	2b00      	cmp	r3, #0
 8000578:	bf14      	ite	ne
 800057a:	2301      	movne	r3, #1
 800057c:	2300      	moveq	r3, #0
 800057e:	b2db      	uxtb	r3, r3
 8000580:	737b      	strb	r3, [r7, #13]
		result.sC = fontChar & ConverterValue_SegmentC ? true : false;
 8000582:	2210      	movs	r2, #16
 8000584:	7dfb      	ldrb	r3, [r7, #23]
 8000586:	4013      	ands	r3, r2
 8000588:	b2db      	uxtb	r3, r3
 800058a:	2b00      	cmp	r3, #0
 800058c:	bf14      	ite	ne
 800058e:	2301      	movne	r3, #1
 8000590:	2300      	moveq	r3, #0
 8000592:	b2db      	uxtb	r3, r3
 8000594:	73bb      	strb	r3, [r7, #14]
		result.sD = fontChar & ConverterValue_SegmentD ? true : false;
 8000596:	2208      	movs	r2, #8
 8000598:	7dfb      	ldrb	r3, [r7, #23]
 800059a:	4013      	ands	r3, r2
 800059c:	b2db      	uxtb	r3, r3
 800059e:	2b00      	cmp	r3, #0
 80005a0:	bf14      	ite	ne
 80005a2:	2301      	movne	r3, #1
 80005a4:	2300      	moveq	r3, #0
 80005a6:	b2db      	uxtb	r3, r3
 80005a8:	73fb      	strb	r3, [r7, #15]
		result.sE = fontChar & ConverterValue_SegmentE ? true : false;
 80005aa:	2204      	movs	r2, #4
 80005ac:	7dfb      	ldrb	r3, [r7, #23]
 80005ae:	4013      	ands	r3, r2
 80005b0:	b2db      	uxtb	r3, r3
 80005b2:	2b00      	cmp	r3, #0
 80005b4:	bf14      	ite	ne
 80005b6:	2301      	movne	r3, #1
 80005b8:	2300      	moveq	r3, #0
 80005ba:	b2db      	uxtb	r3, r3
 80005bc:	743b      	strb	r3, [r7, #16]
		result.sF = fontChar & ConverterValue_SegmentF ? true : false;
 80005be:	2202      	movs	r2, #2
 80005c0:	7dfb      	ldrb	r3, [r7, #23]
 80005c2:	4013      	ands	r3, r2
 80005c4:	b2db      	uxtb	r3, r3
 80005c6:	2b00      	cmp	r3, #0
 80005c8:	bf14      	ite	ne
 80005ca:	2301      	movne	r3, #1
 80005cc:	2300      	moveq	r3, #0
 80005ce:	b2db      	uxtb	r3, r3
 80005d0:	747b      	strb	r3, [r7, #17]
		result.sG = fontChar & ConverterValue_SegmentG ? true : false;
 80005d2:	2201      	movs	r2, #1
 80005d4:	7dfb      	ldrb	r3, [r7, #23]
 80005d6:	4013      	ands	r3, r2
 80005d8:	b2db      	uxtb	r3, r3
 80005da:	2b00      	cmp	r3, #0
 80005dc:	bf14      	ite	ne
 80005de:	2301      	movne	r3, #1
 80005e0:	2300      	moveq	r3, #0
 80005e2:	b2db      	uxtb	r3, r3
 80005e4:	74bb      	strb	r3, [r7, #18]
		result.sDot = fontChar & ConverterValue_SegmentDot ? true : false;
 80005e6:	2280      	movs	r2, #128	; 0x80
 80005e8:	7dfb      	ldrb	r3, [r7, #23]
 80005ea:	4013      	ands	r3, r2
 80005ec:	b2db      	uxtb	r3, r3
 80005ee:	2b00      	cmp	r3, #0
 80005f0:	bf14      	ite	ne
 80005f2:	2301      	movne	r3, #1
 80005f4:	2300      	moveq	r3, #0
 80005f6:	b2db      	uxtb	r3, r3
 80005f8:	74fb      	strb	r3, [r7, #19]
			|| chr == '_') {
 80005fa:	e00f      	b.n	800061c <GetSegmentDigit+0x138>
	}
	else{
		result.sA = true;
 80005fc:	2301      	movs	r3, #1
 80005fe:	733b      	strb	r3, [r7, #12]
		result.sB = true;
 8000600:	2301      	movs	r3, #1
 8000602:	737b      	strb	r3, [r7, #13]
		result.sC = true;
 8000604:	2301      	movs	r3, #1
 8000606:	73bb      	strb	r3, [r7, #14]
		result.sD = true;
 8000608:	2301      	movs	r3, #1
 800060a:	73fb      	strb	r3, [r7, #15]
		result.sE = true;
 800060c:	2301      	movs	r3, #1
 800060e:	743b      	strb	r3, [r7, #16]
		result.sF = true;
 8000610:	2301      	movs	r3, #1
 8000612:	747b      	strb	r3, [r7, #17]
		result.sG = true;
 8000614:	2301      	movs	r3, #1
 8000616:	74bb      	strb	r3, [r7, #18]
		result.sDot = true;
 8000618:	2301      	movs	r3, #1
 800061a:	74fb      	strb	r3, [r7, #19]
	}
	return result;
 800061c:	687b      	ldr	r3, [r7, #4]
 800061e:	461a      	mov	r2, r3
 8000620:	f107 030c 	add.w	r3, r7, #12
 8000624:	cb03      	ldmia	r3!, {r0, r1}
 8000626:	6010      	str	r0, [r2, #0]
 8000628:	6051      	str	r1, [r2, #4]
}
 800062a:	6878      	ldr	r0, [r7, #4]
 800062c:	371c      	adds	r7, #28
 800062e:	46bd      	mov	sp, r7
 8000630:	f85d 7b04 	ldr.w	r7, [sp], #4
 8000634:	4770      	bx	lr
 8000636:	bf00      	nop
 8000638:	08001554 	.word	0x08001554

0800063c <LL_AHB1_GRP1_EnableClock>:
  *
  *         (*) value not defined in all devices.
  * @retval None
*/
__STATIC_INLINE void LL_AHB1_GRP1_EnableClock(uint32_t Periphs)
{
 800063c:	b480      	push	{r7}
 800063e:	b085      	sub	sp, #20
 8000640:	af00      	add	r7, sp, #0
 8000642:	6078      	str	r0, [r7, #4]
  __IO uint32_t tmpreg;
  SET_BIT(RCC->AHBENR, Periphs);
 8000644:	4b08      	ldr	r3, [pc, #32]	; (8000668 <LL_AHB1_GRP1_EnableClock+0x2c>)
 8000646:	695a      	ldr	r2, [r3, #20]
 8000648:	4907      	ldr	r1, [pc, #28]	; (8000668 <LL_AHB1_GRP1_EnableClock+0x2c>)
 800064a:	687b      	ldr	r3, [r7, #4]
 800064c:	4313      	orrs	r3, r2
 800064e:	614b      	str	r3, [r1, #20]
  /* Delay after an RCC peripheral clock enabling */
  tmpreg = READ_BIT(RCC->AHBENR, Periphs);
 8000650:	4b05      	ldr	r3, [pc, #20]	; (8000668 <LL_AHB1_GRP1_EnableClock+0x2c>)
 8000652:	695a      	ldr	r2, [r3, #20]
 8000654:	687b      	ldr	r3, [r7, #4]
 8000656:	4013      	ands	r3, r2
 8000658:	60fb      	str	r3, [r7, #12]
  (void)tmpreg;
 800065a:	68fb      	ldr	r3, [r7, #12]
}
 800065c:	bf00      	nop
 800065e:	3714      	adds	r7, #20
 8000660:	46bd      	mov	sp, r7
 8000662:	f85d 7b04 	ldr.w	r7, [sp], #4
 8000666:	4770      	bx	lr
 8000668:	40021000 	.word	0x40021000

0800066c <LL_GPIO_ResetOutputPin>:
{
 800066c:	b480      	push	{r7}
 800066e:	b083      	sub	sp, #12
 8000670:	af00      	add	r7, sp, #0
 8000672:	6078      	str	r0, [r7, #4]
 8000674:	6039      	str	r1, [r7, #0]
  WRITE_REG(GPIOx->BRR, PinMask);
 8000676:	687b      	ldr	r3, [r7, #4]
 8000678:	683a      	ldr	r2, [r7, #0]
 800067a:	629a      	str	r2, [r3, #40]	; 0x28
}
 800067c:	bf00      	nop
 800067e:	370c      	adds	r7, #12
 8000680:	46bd      	mov	sp, r7
 8000682:	f85d 7b04 	ldr.w	r7, [sp], #4
 8000686:	4770      	bx	lr

08000688 <MX_GPIO_Init>:
/* USER CODE END 1 */

/** Configure pins
*/
void MX_GPIO_Init(void)
{
 8000688:	b580      	push	{r7, lr}
 800068a:	b086      	sub	sp, #24
 800068c:	af00      	add	r7, sp, #0

  LL_GPIO_InitTypeDef GPIO_InitStruct = {0};
 800068e:	463b      	mov	r3, r7
 8000690:	2200      	movs	r2, #0
 8000692:	601a      	str	r2, [r3, #0]
 8000694:	605a      	str	r2, [r3, #4]
 8000696:	609a      	str	r2, [r3, #8]
 8000698:	60da      	str	r2, [r3, #12]
 800069a:	611a      	str	r2, [r3, #16]
 800069c:	615a      	str	r2, [r3, #20]

  /* GPIO Ports Clock Enable */
  LL_AHB1_GRP1_EnableClock(LL_AHB1_GRP1_PERIPH_GPIOA);
 800069e:	f44f 3000 	mov.w	r0, #131072	; 0x20000
 80006a2:	f7ff ffcb 	bl	800063c <LL_AHB1_GRP1_EnableClock>
  LL_AHB1_GRP1_EnableClock(LL_AHB1_GRP1_PERIPH_GPIOB);
 80006a6:	f44f 2080 	mov.w	r0, #262144	; 0x40000
 80006aa:	f7ff ffc7 	bl	800063c <LL_AHB1_GRP1_EnableClock>

  /**/
  LL_GPIO_ResetOutputPin(GPIOA, S_B_Pin|S_A_Pin|D_3_Pin|S_F_Pin
 80006ae:	f640 11ff 	movw	r1, #2559	; 0x9ff
 80006b2:	f04f 4090 	mov.w	r0, #1207959552	; 0x48000000
 80006b6:	f7ff ffd9 	bl	800066c <LL_GPIO_ResetOutputPin>
                          |D_1_Pin|D_0_Pin|D_2_Pin|D_T_Pin
                          |S_C_Pin|S_E_Pin);

  /**/
  LL_GPIO_ResetOutputPin(GPIOB, S_DP_Pin|S_G_Pin|S_D_Pin);
 80006ba:	2132      	movs	r1, #50	; 0x32
 80006bc:	4813      	ldr	r0, [pc, #76]	; (800070c <MX_GPIO_Init+0x84>)
 80006be:	f7ff ffd5 	bl	800066c <LL_GPIO_ResetOutputPin>

  /**/
  GPIO_InitStruct.Pin = S_B_Pin|S_A_Pin|D_3_Pin|S_F_Pin
 80006c2:	f640 13ff 	movw	r3, #2559	; 0x9ff
 80006c6:	603b      	str	r3, [r7, #0]
                          |D_1_Pin|D_0_Pin|D_2_Pin|D_T_Pin
                          |S_C_Pin|S_E_Pin;
  GPIO_InitStruct.Mode = LL_GPIO_MODE_OUTPUT;
 80006c8:	2301      	movs	r3, #1
 80006ca:	607b      	str	r3, [r7, #4]
  GPIO_InitStruct.Speed = LL_GPIO_SPEED_FREQ_LOW;
 80006cc:	2300      	movs	r3, #0
 80006ce:	60bb      	str	r3, [r7, #8]
  GPIO_InitStruct.OutputType = LL_GPIO_OUTPUT_PUSHPULL;
 80006d0:	2300      	movs	r3, #0
 80006d2:	60fb      	str	r3, [r7, #12]
  GPIO_InitStruct.Pull = LL_GPIO_PULL_NO;
 80006d4:	2300      	movs	r3, #0
 80006d6:	613b      	str	r3, [r7, #16]
  LL_GPIO_Init(GPIOA, &GPIO_InitStruct);
 80006d8:	463b      	mov	r3, r7
 80006da:	4619      	mov	r1, r3
 80006dc:	f04f 4090 	mov.w	r0, #1207959552	; 0x48000000
 80006e0:	f000 fdaa 	bl	8001238 <LL_GPIO_Init>

  /**/
  GPIO_InitStruct.Pin = S_DP_Pin|S_G_Pin|S_D_Pin;
 80006e4:	2332      	movs	r3, #50	; 0x32
 80006e6:	603b      	str	r3, [r7, #0]
  GPIO_InitStruct.Mode = LL_GPIO_MODE_OUTPUT;
 80006e8:	2301      	movs	r3, #1
 80006ea:	607b      	str	r3, [r7, #4]
  GPIO_InitStruct.Speed = LL_GPIO_SPEED_FREQ_LOW;
 80006ec:	2300      	movs	r3, #0
 80006ee:	60bb      	str	r3, [r7, #8]
  GPIO_InitStruct.OutputType = LL_GPIO_OUTPUT_PUSHPULL;
 80006f0:	2300      	movs	r3, #0
 80006f2:	60fb      	str	r3, [r7, #12]
  GPIO_InitStruct.Pull = LL_GPIO_PULL_NO;
 80006f4:	2300      	movs	r3, #0
 80006f6:	613b      	str	r3, [r7, #16]
  LL_GPIO_Init(GPIOB, &GPIO_InitStruct);
 80006f8:	463b      	mov	r3, r7
 80006fa:	4619      	mov	r1, r3
 80006fc:	4803      	ldr	r0, [pc, #12]	; (800070c <MX_GPIO_Init+0x84>)
 80006fe:	f000 fd9b 	bl	8001238 <LL_GPIO_Init>

}
 8000702:	bf00      	nop
 8000704:	3718      	adds	r7, #24
 8000706:	46bd      	mov	sp, r7
 8000708:	bd80      	pop	{r7, pc}
 800070a:	bf00      	nop
 800070c:	48000400 	.word	0x48000400

08000710 <__NVIC_SetPriorityGrouping>:
           In case of a conflict between priority grouping and available
           priority bits (__NVIC_PRIO_BITS), the smallest possible priority group is set.
  \param [in]      PriorityGroup  Priority grouping field.
 */
__STATIC_INLINE void __NVIC_SetPriorityGrouping(uint32_t PriorityGroup)
{
 8000710:	b480      	push	{r7}
 8000712:	b085      	sub	sp, #20
 8000714:	af00      	add	r7, sp, #0
 8000716:	6078      	str	r0, [r7, #4]
  uint32_t reg_value;
  uint32_t PriorityGroupTmp = (PriorityGroup & (uint32_t)0x07UL);             /* only values 0..7 are used          */
 8000718:	687b      	ldr	r3, [r7, #4]
 800071a:	f003 0307 	and.w	r3, r3, #7
 800071e:	60fb      	str	r3, [r7, #12]

  reg_value  =  SCB->AIRCR;                                                   /* read old register configuration    */
 8000720:	4b0c      	ldr	r3, [pc, #48]	; (8000754 <__NVIC_SetPriorityGrouping+0x44>)
 8000722:	68db      	ldr	r3, [r3, #12]
 8000724:	60bb      	str	r3, [r7, #8]
  reg_value &= ~((uint32_t)(SCB_AIRCR_VECTKEY_Msk | SCB_AIRCR_PRIGROUP_Msk)); /* clear bits to change               */
 8000726:	68ba      	ldr	r2, [r7, #8]
 8000728:	f64f 03ff 	movw	r3, #63743	; 0xf8ff
 800072c:	4013      	ands	r3, r2
 800072e:	60bb      	str	r3, [r7, #8]
  reg_value  =  (reg_value                                   |
                ((uint32_t)0x5FAUL << SCB_AIRCR_VECTKEY_Pos) |
                (PriorityGroupTmp << SCB_AIRCR_PRIGROUP_Pos)  );              /* Insert write key and priority group */
 8000730:	68fb      	ldr	r3, [r7, #12]
 8000732:	021a      	lsls	r2, r3, #8
                ((uint32_t)0x5FAUL << SCB_AIRCR_VECTKEY_Pos) |
 8000734:	68bb      	ldr	r3, [r7, #8]
 8000736:	4313      	orrs	r3, r2
  reg_value  =  (reg_value                                   |
 8000738:	f043 63bf 	orr.w	r3, r3, #100139008	; 0x5f80000
 800073c:	f443 3300 	orr.w	r3, r3, #131072	; 0x20000
 8000740:	60bb      	str	r3, [r7, #8]
  SCB->AIRCR =  reg_value;
 8000742:	4a04      	ldr	r2, [pc, #16]	; (8000754 <__NVIC_SetPriorityGrouping+0x44>)
 8000744:	68bb      	ldr	r3, [r7, #8]
 8000746:	60d3      	str	r3, [r2, #12]
}
 8000748:	bf00      	nop
 800074a:	3714      	adds	r7, #20
 800074c:	46bd      	mov	sp, r7
 800074e:	f85d 7b04 	ldr.w	r7, [sp], #4
 8000752:	4770      	bx	lr
 8000754:	e000ed00 	.word	0xe000ed00

08000758 <__NVIC_GetPriorityGrouping>:
  \brief   Get Priority Grouping
  \details Reads the priority grouping field from the NVIC Interrupt Controller.
  \return                Priority grouping field (SCB->AIRCR [10:8] PRIGROUP field).
 */
__STATIC_INLINE uint32_t __NVIC_GetPriorityGrouping(void)
{
 8000758:	b480      	push	{r7}
 800075a:	af00      	add	r7, sp, #0
  return ((uint32_t)((SCB->AIRCR & SCB_AIRCR_PRIGROUP_Msk) >> SCB_AIRCR_PRIGROUP_Pos));
 800075c:	4b04      	ldr	r3, [pc, #16]	; (8000770 <__NVIC_GetPriorityGrouping+0x18>)
 800075e:	68db      	ldr	r3, [r3, #12]
 8000760:	0a1b      	lsrs	r3, r3, #8
 8000762:	f003 0307 	and.w	r3, r3, #7
}
 8000766:	4618      	mov	r0, r3
 8000768:	46bd      	mov	sp, r7
 800076a:	f85d 7b04 	ldr.w	r7, [sp], #4
 800076e:	4770      	bx	lr
 8000770:	e000ed00 	.word	0xe000ed00

08000774 <__NVIC_SetPriority>:
  \param [in]      IRQn  Interrupt number.
  \param [in]  priority  Priority to set.
  \note    The priority cannot be set for every processor exception.
 */
__STATIC_INLINE void __NVIC_SetPriority(IRQn_Type IRQn, uint32_t priority)
{
 8000774:	b480      	push	{r7}
 8000776:	b083      	sub	sp, #12
 8000778:	af00      	add	r7, sp, #0
 800077a:	4603      	mov	r3, r0
 800077c:	6039      	str	r1, [r7, #0]
 800077e:	71fb      	strb	r3, [r7, #7]
  if ((int32_t)(IRQn) >= 0)
 8000780:	f997 3007 	ldrsb.w	r3, [r7, #7]
 8000784:	2b00      	cmp	r3, #0
 8000786:	db0a      	blt.n	800079e <__NVIC_SetPriority+0x2a>
  {
    NVIC->IP[((uint32_t)IRQn)]               = (uint8_t)((priority << (8U - __NVIC_PRIO_BITS)) & (uint32_t)0xFFUL);
 8000788:	683b      	ldr	r3, [r7, #0]
 800078a:	b2da      	uxtb	r2, r3
 800078c:	490c      	ldr	r1, [pc, #48]	; (80007c0 <__NVIC_SetPriority+0x4c>)
 800078e:	f997 3007 	ldrsb.w	r3, [r7, #7]
 8000792:	0112      	lsls	r2, r2, #4
 8000794:	b2d2      	uxtb	r2, r2
 8000796:	440b      	add	r3, r1
 8000798:	f883 2300 	strb.w	r2, [r3, #768]	; 0x300
  }
  else
  {
    SCB->SHP[(((uint32_t)IRQn) & 0xFUL)-4UL] = (uint8_t)((priority << (8U - __NVIC_PRIO_BITS)) & (uint32_t)0xFFUL);
  }
}
 800079c:	e00a      	b.n	80007b4 <__NVIC_SetPriority+0x40>
    SCB->SHP[(((uint32_t)IRQn) & 0xFUL)-4UL] = (uint8_t)((priority << (8U - __NVIC_PRIO_BITS)) & (uint32_t)0xFFUL);
 800079e:	683b      	ldr	r3, [r7, #0]
 80007a0:	b2da      	uxtb	r2, r3
 80007a2:	4908      	ldr	r1, [pc, #32]	; (80007c4 <__NVIC_SetPriority+0x50>)
 80007a4:	79fb      	ldrb	r3, [r7, #7]
 80007a6:	f003 030f 	and.w	r3, r3, #15
 80007aa:	3b04      	subs	r3, #4
 80007ac:	0112      	lsls	r2, r2, #4
 80007ae:	b2d2      	uxtb	r2, r2
 80007b0:	440b      	add	r3, r1
 80007b2:	761a      	strb	r2, [r3, #24]
}
 80007b4:	bf00      	nop
 80007b6:	370c      	adds	r7, #12
 80007b8:	46bd      	mov	sp, r7
 80007ba:	f85d 7b04 	ldr.w	r7, [sp], #4
 80007be:	4770      	bx	lr
 80007c0:	e000e100 	.word	0xe000e100
 80007c4:	e000ed00 	.word	0xe000ed00

080007c8 <NVIC_EncodePriority>:
  \param [in]   PreemptPriority  Preemptive priority value (starting from 0).
  \param [in]       SubPriority  Subpriority value (starting from 0).
  \return                        Encoded priority. Value can be used in the function \ref NVIC_SetPriority().
 */
__STATIC_INLINE uint32_t NVIC_EncodePriority (uint32_t PriorityGroup, uint32_t PreemptPriority, uint32_t SubPriority)
{
 80007c8:	b480      	push	{r7}
 80007ca:	b089      	sub	sp, #36	; 0x24
 80007cc:	af00      	add	r7, sp, #0
 80007ce:	60f8      	str	r0, [r7, #12]
 80007d0:	60b9      	str	r1, [r7, #8]
 80007d2:	607a      	str	r2, [r7, #4]
  uint32_t PriorityGroupTmp = (PriorityGroup & (uint32_t)0x07UL);   /* only values 0..7 are used          */
 80007d4:	68fb      	ldr	r3, [r7, #12]
 80007d6:	f003 0307 	and.w	r3, r3, #7
 80007da:	61fb      	str	r3, [r7, #28]
  uint32_t PreemptPriorityBits;
  uint32_t SubPriorityBits;

  PreemptPriorityBits = ((7UL - PriorityGroupTmp) > (uint32_t)(__NVIC_PRIO_BITS)) ? (uint32_t)(__NVIC_PRIO_BITS) : (uint32_t)(7UL - PriorityGroupTmp);
 80007dc:	69fb      	ldr	r3, [r7, #28]
 80007de:	f1c3 0307 	rsb	r3, r3, #7
 80007e2:	2b04      	cmp	r3, #4
 80007e4:	bf28      	it	cs
 80007e6:	2304      	movcs	r3, #4
 80007e8:	61bb      	str	r3, [r7, #24]
  SubPriorityBits     = ((PriorityGroupTmp + (uint32_t)(__NVIC_PRIO_BITS)) < (uint32_t)7UL) ? (uint32_t)0UL : (uint32_t)((PriorityGroupTmp - 7UL) + (uint32_t)(__NVIC_PRIO_BITS));
 80007ea:	69fb      	ldr	r3, [r7, #28]
 80007ec:	3304      	adds	r3, #4
 80007ee:	2b06      	cmp	r3, #6
 80007f0:	d902      	bls.n	80007f8 <NVIC_EncodePriority+0x30>
 80007f2:	69fb      	ldr	r3, [r7, #28]
 80007f4:	3b03      	subs	r3, #3
 80007f6:	e000      	b.n	80007fa <NVIC_EncodePriority+0x32>
 80007f8:	2300      	movs	r3, #0
 80007fa:	617b      	str	r3, [r7, #20]

  return (
           ((PreemptPriority & (uint32_t)((1UL << (PreemptPriorityBits)) - 1UL)) << SubPriorityBits) |
 80007fc:	f04f 32ff 	mov.w	r2, #4294967295
 8000800:	69bb      	ldr	r3, [r7, #24]
 8000802:	fa02 f303 	lsl.w	r3, r2, r3
 8000806:	43da      	mvns	r2, r3
 8000808:	68bb      	ldr	r3, [r7, #8]
 800080a:	401a      	ands	r2, r3
 800080c:	697b      	ldr	r3, [r7, #20]
 800080e:	409a      	lsls	r2, r3
           ((SubPriority     & (uint32_t)((1UL << (SubPriorityBits    )) - 1UL)))
 8000810:	f04f 31ff 	mov.w	r1, #4294967295
 8000814:	697b      	ldr	r3, [r7, #20]
 8000816:	fa01 f303 	lsl.w	r3, r1, r3
 800081a:	43d9      	mvns	r1, r3
 800081c:	687b      	ldr	r3, [r7, #4]
 800081e:	400b      	ands	r3, r1
           ((PreemptPriority & (uint32_t)((1UL << (PreemptPriorityBits)) - 1UL)) << SubPriorityBits) |
 8000820:	4313      	orrs	r3, r2
         );
}
 8000822:	4618      	mov	r0, r3
 8000824:	3724      	adds	r7, #36	; 0x24
 8000826:	46bd      	mov	sp, r7
 8000828:	f85d 7b04 	ldr.w	r7, [sp], #4
 800082c:	4770      	bx	lr
	...

08000830 <LL_RCC_HSI_Enable>:
  * @brief  Enable HSI oscillator
  * @rmtoll CR           HSION         LL_RCC_HSI_Enable
  * @retval None
  */
__STATIC_INLINE void LL_RCC_HSI_Enable(void)
{
 8000830:	b480      	push	{r7}
 8000832:	af00      	add	r7, sp, #0
  SET_BIT(RCC->CR, RCC_CR_HSION);
 8000834:	4b05      	ldr	r3, [pc, #20]	; (800084c <LL_RCC_HSI_Enable+0x1c>)
 8000836:	681b      	ldr	r3, [r3, #0]
 8000838:	4a04      	ldr	r2, [pc, #16]	; (800084c <LL_RCC_HSI_Enable+0x1c>)
 800083a:	f043 0301 	orr.w	r3, r3, #1
 800083e:	6013      	str	r3, [r2, #0]
}
 8000840:	bf00      	nop
 8000842:	46bd      	mov	sp, r7
 8000844:	f85d 7b04 	ldr.w	r7, [sp], #4
 8000848:	4770      	bx	lr
 800084a:	bf00      	nop
 800084c:	40021000 	.word	0x40021000

08000850 <LL_RCC_HSI_IsReady>:
  * @brief  Check if HSI clock is ready
  * @rmtoll CR           HSIRDY        LL_RCC_HSI_IsReady
  * @retval State of bit (1 or 0).
  */
__STATIC_INLINE uint32_t LL_RCC_HSI_IsReady(void)
{
 8000850:	b480      	push	{r7}
 8000852:	af00      	add	r7, sp, #0
  return (READ_BIT(RCC->CR, RCC_CR_HSIRDY) == (RCC_CR_HSIRDY));
 8000854:	4b06      	ldr	r3, [pc, #24]	; (8000870 <LL_RCC_HSI_IsReady+0x20>)
 8000856:	681b      	ldr	r3, [r3, #0]
 8000858:	f003 0302 	and.w	r3, r3, #2
 800085c:	2b02      	cmp	r3, #2
 800085e:	bf0c      	ite	eq
 8000860:	2301      	moveq	r3, #1
 8000862:	2300      	movne	r3, #0
 8000864:	b2db      	uxtb	r3, r3
}
 8000866:	4618      	mov	r0, r3
 8000868:	46bd      	mov	sp, r7
 800086a:	f85d 7b04 	ldr.w	r7, [sp], #4
 800086e:	4770      	bx	lr
 8000870:	40021000 	.word	0x40021000

08000874 <LL_RCC_HSI_SetCalibTrimming>:
  * @rmtoll CR        HSITRIM       LL_RCC_HSI_SetCalibTrimming
  * @param  Value between Min_Data = 0x00 and Max_Data = 0x1F
  * @retval None
  */
__STATIC_INLINE void LL_RCC_HSI_SetCalibTrimming(uint32_t Value)
{
 8000874:	b480      	push	{r7}
 8000876:	b083      	sub	sp, #12
 8000878:	af00      	add	r7, sp, #0
 800087a:	6078      	str	r0, [r7, #4]
  MODIFY_REG(RCC->CR, RCC_CR_HSITRIM, Value << RCC_CR_HSITRIM_Pos);
 800087c:	4b07      	ldr	r3, [pc, #28]	; (800089c <LL_RCC_HSI_SetCalibTrimming+0x28>)
 800087e:	681b      	ldr	r3, [r3, #0]
 8000880:	f023 02f8 	bic.w	r2, r3, #248	; 0xf8
 8000884:	687b      	ldr	r3, [r7, #4]
 8000886:	00db      	lsls	r3, r3, #3
 8000888:	4904      	ldr	r1, [pc, #16]	; (800089c <LL_RCC_HSI_SetCalibTrimming+0x28>)
 800088a:	4313      	orrs	r3, r2
 800088c:	600b      	str	r3, [r1, #0]
}
 800088e:	bf00      	nop
 8000890:	370c      	adds	r7, #12
 8000892:	46bd      	mov	sp, r7
 8000894:	f85d 7b04 	ldr.w	r7, [sp], #4
 8000898:	4770      	bx	lr
 800089a:	bf00      	nop
 800089c:	40021000 	.word	0x40021000

080008a0 <LL_RCC_SetSysClkSource>:
  *         @arg @ref LL_RCC_SYS_CLKSOURCE_HSE
  *         @arg @ref LL_RCC_SYS_CLKSOURCE_PLL
  * @retval None
  */
__STATIC_INLINE void LL_RCC_SetSysClkSource(uint32_t Source)
{
 80008a0:	b480      	push	{r7}
 80008a2:	b083      	sub	sp, #12
 80008a4:	af00      	add	r7, sp, #0
 80008a6:	6078      	str	r0, [r7, #4]
  MODIFY_REG(RCC->CFGR, RCC_CFGR_SW, Source);
 80008a8:	4b06      	ldr	r3, [pc, #24]	; (80008c4 <LL_RCC_SetSysClkSource+0x24>)
 80008aa:	685b      	ldr	r3, [r3, #4]
 80008ac:	f023 0203 	bic.w	r2, r3, #3
 80008b0:	4904      	ldr	r1, [pc, #16]	; (80008c4 <LL_RCC_SetSysClkSource+0x24>)
 80008b2:	687b      	ldr	r3, [r7, #4]
 80008b4:	4313      	orrs	r3, r2
 80008b6:	604b      	str	r3, [r1, #4]
}
 80008b8:	bf00      	nop
 80008ba:	370c      	adds	r7, #12
 80008bc:	46bd      	mov	sp, r7
 80008be:	f85d 7b04 	ldr.w	r7, [sp], #4
 80008c2:	4770      	bx	lr
 80008c4:	40021000 	.word	0x40021000

080008c8 <LL_RCC_GetSysClkSource>:
  *         @arg @ref LL_RCC_SYS_CLKSOURCE_STATUS_HSI
  *         @arg @ref LL_RCC_SYS_CLKSOURCE_STATUS_HSE
  *         @arg @ref LL_RCC_SYS_CLKSOURCE_STATUS_PLL
  */
__STATIC_INLINE uint32_t LL_RCC_GetSysClkSource(void)
{
 80008c8:	b480      	push	{r7}
 80008ca:	af00      	add	r7, sp, #0
  return (uint32_t)(READ_BIT(RCC->CFGR, RCC_CFGR_SWS));
 80008cc:	4b04      	ldr	r3, [pc, #16]	; (80008e0 <LL_RCC_GetSysClkSource+0x18>)
 80008ce:	685b      	ldr	r3, [r3, #4]
 80008d0:	f003 030c 	and.w	r3, r3, #12
}
 80008d4:	4618      	mov	r0, r3
 80008d6:	46bd      	mov	sp, r7
 80008d8:	f85d 7b04 	ldr.w	r7, [sp], #4
 80008dc:	4770      	bx	lr
 80008de:	bf00      	nop
 80008e0:	40021000 	.word	0x40021000

080008e4 <LL_RCC_SetAHBPrescaler>:
  *         @arg @ref LL_RCC_SYSCLK_DIV_256
  *         @arg @ref LL_RCC_SYSCLK_DIV_512
  * @retval None
  */
__STATIC_INLINE void LL_RCC_SetAHBPrescaler(uint32_t Prescaler)
{
 80008e4:	b480      	push	{r7}
 80008e6:	b083      	sub	sp, #12
 80008e8:	af00      	add	r7, sp, #0
 80008ea:	6078      	str	r0, [r7, #4]
  MODIFY_REG(RCC->CFGR, RCC_CFGR_HPRE, Prescaler);
 80008ec:	4b06      	ldr	r3, [pc, #24]	; (8000908 <LL_RCC_SetAHBPrescaler+0x24>)
 80008ee:	685b      	ldr	r3, [r3, #4]
 80008f0:	f023 02f0 	bic.w	r2, r3, #240	; 0xf0
 80008f4:	4904      	ldr	r1, [pc, #16]	; (8000908 <LL_RCC_SetAHBPrescaler+0x24>)
 80008f6:	687b      	ldr	r3, [r7, #4]
 80008f8:	4313      	orrs	r3, r2
 80008fa:	604b      	str	r3, [r1, #4]
}
 80008fc:	bf00      	nop
 80008fe:	370c      	adds	r7, #12
 8000900:	46bd      	mov	sp, r7
 8000902:	f85d 7b04 	ldr.w	r7, [sp], #4
 8000906:	4770      	bx	lr
 8000908:	40021000 	.word	0x40021000

0800090c <LL_RCC_SetAPB1Prescaler>:
  *         @arg @ref LL_RCC_APB1_DIV_8
  *         @arg @ref LL_RCC_APB1_DIV_16
  * @retval None
  */
__STATIC_INLINE void LL_RCC_SetAPB1Prescaler(uint32_t Prescaler)
{
 800090c:	b480      	push	{r7}
 800090e:	b083      	sub	sp, #12
 8000910:	af00      	add	r7, sp, #0
 8000912:	6078      	str	r0, [r7, #4]
  MODIFY_REG(RCC->CFGR, RCC_CFGR_PPRE1, Prescaler);
 8000914:	4b06      	ldr	r3, [pc, #24]	; (8000930 <LL_RCC_SetAPB1Prescaler+0x24>)
 8000916:	685b      	ldr	r3, [r3, #4]
 8000918:	f423 62e0 	bic.w	r2, r3, #1792	; 0x700
 800091c:	4904      	ldr	r1, [pc, #16]	; (8000930 <LL_RCC_SetAPB1Prescaler+0x24>)
 800091e:	687b      	ldr	r3, [r7, #4]
 8000920:	4313      	orrs	r3, r2
 8000922:	604b      	str	r3, [r1, #4]
}
 8000924:	bf00      	nop
 8000926:	370c      	adds	r7, #12
 8000928:	46bd      	mov	sp, r7
 800092a:	f85d 7b04 	ldr.w	r7, [sp], #4
 800092e:	4770      	bx	lr
 8000930:	40021000 	.word	0x40021000

08000934 <LL_RCC_SetAPB2Prescaler>:
  *         @arg @ref LL_RCC_APB2_DIV_8
  *         @arg @ref LL_RCC_APB2_DIV_16
  * @retval None
  */
__STATIC_INLINE void LL_RCC_SetAPB2Prescaler(uint32_t Prescaler)
{
 8000934:	b480      	push	{r7}
 8000936:	b083      	sub	sp, #12
 8000938:	af00      	add	r7, sp, #0
 800093a:	6078      	str	r0, [r7, #4]
  MODIFY_REG(RCC->CFGR, RCC_CFGR_PPRE2, Prescaler);
 800093c:	4b06      	ldr	r3, [pc, #24]	; (8000958 <LL_RCC_SetAPB2Prescaler+0x24>)
 800093e:	685b      	ldr	r3, [r3, #4]
 8000940:	f423 5260 	bic.w	r2, r3, #14336	; 0x3800
 8000944:	4904      	ldr	r1, [pc, #16]	; (8000958 <LL_RCC_SetAPB2Prescaler+0x24>)
 8000946:	687b      	ldr	r3, [r7, #4]
 8000948:	4313      	orrs	r3, r2
 800094a:	604b      	str	r3, [r1, #4]
}
 800094c:	bf00      	nop
 800094e:	370c      	adds	r7, #12
 8000950:	46bd      	mov	sp, r7
 8000952:	f85d 7b04 	ldr.w	r7, [sp], #4
 8000956:	4770      	bx	lr
 8000958:	40021000 	.word	0x40021000

0800095c <LL_APB1_GRP1_EnableClock>:
  *
  *         (*) value not defined in all devices.
  * @retval None
*/
__STATIC_INLINE void LL_APB1_GRP1_EnableClock(uint32_t Periphs)
{
 800095c:	b480      	push	{r7}
 800095e:	b085      	sub	sp, #20
 8000960:	af00      	add	r7, sp, #0
 8000962:	6078      	str	r0, [r7, #4]
  __IO uint32_t tmpreg;
  SET_BIT(RCC->APB1ENR, Periphs);
 8000964:	4b08      	ldr	r3, [pc, #32]	; (8000988 <LL_APB1_GRP1_EnableClock+0x2c>)
 8000966:	69da      	ldr	r2, [r3, #28]
 8000968:	4907      	ldr	r1, [pc, #28]	; (8000988 <LL_APB1_GRP1_EnableClock+0x2c>)
 800096a:	687b      	ldr	r3, [r7, #4]
 800096c:	4313      	orrs	r3, r2
 800096e:	61cb      	str	r3, [r1, #28]
  /* Delay after an RCC peripheral clock enabling */
  tmpreg = READ_BIT(RCC->APB1ENR, Periphs);
 8000970:	4b05      	ldr	r3, [pc, #20]	; (8000988 <LL_APB1_GRP1_EnableClock+0x2c>)
 8000972:	69da      	ldr	r2, [r3, #28]
 8000974:	687b      	ldr	r3, [r7, #4]
 8000976:	4013      	ands	r3, r2
 8000978:	60fb      	str	r3, [r7, #12]
  (void)tmpreg;
 800097a:	68fb      	ldr	r3, [r7, #12]
}
 800097c:	bf00      	nop
 800097e:	3714      	adds	r7, #20
 8000980:	46bd      	mov	sp, r7
 8000982:	f85d 7b04 	ldr.w	r7, [sp], #4
 8000986:	4770      	bx	lr
 8000988:	40021000 	.word	0x40021000

0800098c <LL_APB2_GRP1_EnableClock>:
  *
  *         (*) value not defined in all devices.
  * @retval None
*/
__STATIC_INLINE void LL_APB2_GRP1_EnableClock(uint32_t Periphs)
{
 800098c:	b480      	push	{r7}
 800098e:	b085      	sub	sp, #20
 8000990:	af00      	add	r7, sp, #0
 8000992:	6078      	str	r0, [r7, #4]
  __IO uint32_t tmpreg;
  SET_BIT(RCC->APB2ENR, Periphs);
 8000994:	4b08      	ldr	r3, [pc, #32]	; (80009b8 <LL_APB2_GRP1_EnableClock+0x2c>)
 8000996:	699a      	ldr	r2, [r3, #24]
 8000998:	4907      	ldr	r1, [pc, #28]	; (80009b8 <LL_APB2_GRP1_EnableClock+0x2c>)
 800099a:	687b      	ldr	r3, [r7, #4]
 800099c:	4313      	orrs	r3, r2
 800099e:	618b      	str	r3, [r1, #24]
  /* Delay after an RCC peripheral clock enabling */
  tmpreg = READ_BIT(RCC->APB2ENR, Periphs);
 80009a0:	4b05      	ldr	r3, [pc, #20]	; (80009b8 <LL_APB2_GRP1_EnableClock+0x2c>)
 80009a2:	699a      	ldr	r2, [r3, #24]
 80009a4:	687b      	ldr	r3, [r7, #4]
 80009a6:	4013      	ands	r3, r2
 80009a8:	60fb      	str	r3, [r7, #12]
  (void)tmpreg;
 80009aa:	68fb      	ldr	r3, [r7, #12]
}
 80009ac:	bf00      	nop
 80009ae:	3714      	adds	r7, #20
 80009b0:	46bd      	mov	sp, r7
 80009b2:	f85d 7b04 	ldr.w	r7, [sp], #4
 80009b6:	4770      	bx	lr
 80009b8:	40021000 	.word	0x40021000

080009bc <LL_FLASH_SetLatency>:
  *         @arg @ref LL_FLASH_LATENCY_1
  *         @arg @ref LL_FLASH_LATENCY_2
  * @retval None
  */
__STATIC_INLINE void LL_FLASH_SetLatency(uint32_t Latency)
{
 80009bc:	b480      	push	{r7}
 80009be:	b083      	sub	sp, #12
 80009c0:	af00      	add	r7, sp, #0
 80009c2:	6078      	str	r0, [r7, #4]
  MODIFY_REG(FLASH->ACR, FLASH_ACR_LATENCY, Latency);
 80009c4:	4b06      	ldr	r3, [pc, #24]	; (80009e0 <LL_FLASH_SetLatency+0x24>)
 80009c6:	681b      	ldr	r3, [r3, #0]
 80009c8:	f023 0207 	bic.w	r2, r3, #7
 80009cc:	4904      	ldr	r1, [pc, #16]	; (80009e0 <LL_FLASH_SetLatency+0x24>)
 80009ce:	687b      	ldr	r3, [r7, #4]
 80009d0:	4313      	orrs	r3, r2
 80009d2:	600b      	str	r3, [r1, #0]
}
 80009d4:	bf00      	nop
 80009d6:	370c      	adds	r7, #12
 80009d8:	46bd      	mov	sp, r7
 80009da:	f85d 7b04 	ldr.w	r7, [sp], #4
 80009de:	4770      	bx	lr
 80009e0:	40022000 	.word	0x40022000

080009e4 <LL_FLASH_GetLatency>:
  *         @arg @ref LL_FLASH_LATENCY_0
  *         @arg @ref LL_FLASH_LATENCY_1
  *         @arg @ref LL_FLASH_LATENCY_2
  */
__STATIC_INLINE uint32_t LL_FLASH_GetLatency(void)
{
 80009e4:	b480      	push	{r7}
 80009e6:	af00      	add	r7, sp, #0
  return (uint32_t)(READ_BIT(FLASH->ACR, FLASH_ACR_LATENCY));
 80009e8:	4b04      	ldr	r3, [pc, #16]	; (80009fc <LL_FLASH_GetLatency+0x18>)
 80009ea:	681b      	ldr	r3, [r3, #0]
 80009ec:	f003 0307 	and.w	r3, r3, #7
}
 80009f0:	4618      	mov	r0, r3
 80009f2:	46bd      	mov	sp, r7
 80009f4:	f85d 7b04 	ldr.w	r7, [sp], #4
 80009f8:	4770      	bx	lr
 80009fa:	bf00      	nop
 80009fc:	40022000 	.word	0x40022000

08000a00 <main>:

/**
 * @brief  The application entry point.
 * @retval int
 */
int main(void) {
 8000a00:	b5b0      	push	{r4, r5, r7, lr}
 8000a02:	b086      	sub	sp, #24
 8000a04:	af00      	add	r7, sp, #0
	/* USER CODE BEGIN 1 */
	DisplayDigit_0.index = 0;
 8000a06:	4b3f      	ldr	r3, [pc, #252]	; (8000b04 <main+0x104>)
 8000a08:	2200      	movs	r2, #0
 8000a0a:	701a      	strb	r2, [r3, #0]
	DisplayDigit_0.chr = 0;
 8000a0c:	4b3d      	ldr	r3, [pc, #244]	; (8000b04 <main+0x104>)
 8000a0e:	2200      	movs	r2, #0
 8000a10:	705a      	strb	r2, [r3, #1]
	DisplayDigit_1.index = 1;
 8000a12:	4b3d      	ldr	r3, [pc, #244]	; (8000b08 <main+0x108>)
 8000a14:	2201      	movs	r2, #1
 8000a16:	701a      	strb	r2, [r3, #0]
	DisplayDigit_1.chr = 0;
 8000a18:	4b3b      	ldr	r3, [pc, #236]	; (8000b08 <main+0x108>)
 8000a1a:	2200      	movs	r2, #0
 8000a1c:	705a      	strb	r2, [r3, #1]
	DisplayDigit_2.index = 2;
 8000a1e:	4b3b      	ldr	r3, [pc, #236]	; (8000b0c <main+0x10c>)
 8000a20:	2202      	movs	r2, #2
 8000a22:	701a      	strb	r2, [r3, #0]
	DisplayDigit_2.chr = 0;
 8000a24:	4b39      	ldr	r3, [pc, #228]	; (8000b0c <main+0x10c>)
 8000a26:	2200      	movs	r2, #0
 8000a28:	705a      	strb	r2, [r3, #1]
	DisplayDigit_3.index = 3;
 8000a2a:	4b39      	ldr	r3, [pc, #228]	; (8000b10 <main+0x110>)
 8000a2c:	2203      	movs	r2, #3
 8000a2e:	701a      	strb	r2, [r3, #0]
	DisplayDigit_3.chr = 0;
 8000a30:	4b37      	ldr	r3, [pc, #220]	; (8000b10 <main+0x110>)
 8000a32:	2200      	movs	r2, #0
 8000a34:	705a      	strb	r2, [r3, #1]
	nextStringSequence = false;
 8000a36:	4b37      	ldr	r3, [pc, #220]	; (8000b14 <main+0x114>)
 8000a38:	2200      	movs	r2, #0
 8000a3a:	701a      	strb	r2, [r3, #0]
	Direction_ direction = Direction_DownUp;
 8000a3c:	2300      	movs	r3, #0
 8000a3e:	75fb      	strb	r3, [r7, #23]

	/* MCU Configuration--------------------------------------------------------*/

	/* Reset of all peripherals, Initializes the Flash interface and the Systick. */

	LL_APB2_GRP1_EnableClock(LL_APB2_GRP1_PERIPH_SYSCFG);
 8000a40:	2001      	movs	r0, #1
 8000a42:	f7ff ffa3 	bl	800098c <LL_APB2_GRP1_EnableClock>
	LL_APB1_GRP1_EnableClock(LL_APB1_GRP1_PERIPH_PWR);
 8000a46:	f04f 5080 	mov.w	r0, #268435456	; 0x10000000
 8000a4a:	f7ff ff87 	bl	800095c <LL_APB1_GRP1_EnableClock>

	NVIC_SetPriorityGrouping(NVIC_PRIORITYGROUP_4);
 8000a4e:	2003      	movs	r0, #3
 8000a50:	f7ff fe5e 	bl	8000710 <__NVIC_SetPriorityGrouping>

	/* System interrupt init*/
	/* SysTick_IRQn interrupt configuration */
	NVIC_SetPriority(SysTick_IRQn,
 8000a54:	f7ff fe80 	bl	8000758 <__NVIC_GetPriorityGrouping>
 8000a58:	4603      	mov	r3, r0
 8000a5a:	2200      	movs	r2, #0
 8000a5c:	210f      	movs	r1, #15
 8000a5e:	4618      	mov	r0, r3
 8000a60:	f7ff feb2 	bl	80007c8 <NVIC_EncodePriority>
 8000a64:	4603      	mov	r3, r0
 8000a66:	4619      	mov	r1, r3
 8000a68:	f04f 30ff 	mov.w	r0, #4294967295
 8000a6c:	f7ff fe82 	bl	8000774 <__NVIC_SetPriority>
	/* USER CODE BEGIN Init */

	/* USER CODE END Init */

	/* Configure the system clock */
	SystemClock_Config();
 8000a70:	f000 f854 	bl	8000b1c <SystemClock_Config>
	/* USER CODE BEGIN SysInit */

	/* USER CODE END SysInit */

	/* Initialize all configured peripherals */
	MX_GPIO_Init();
 8000a74:	f7ff fe08 	bl	8000688 <MX_GPIO_Init>
	MX_TIM6_Init();
 8000a78:	f000 fa30 	bl	8000edc <MX_TIM6_Init>
	MX_TIM7_Init();
 8000a7c:	f000 fa6e 	bl	8000f5c <MX_TIM7_Init>
	/* USER CODE BEGIN 2 */
	uint8_t index = 0;
 8000a80:	2300      	movs	r3, #0
 8000a82:	75bb      	strb	r3, [r7, #22]
	uint8_t string[] = "ONDREJ_DURMIS_98324";
 8000a84:	4b24      	ldr	r3, [pc, #144]	; (8000b18 <main+0x118>)
 8000a86:	463c      	mov	r4, r7
 8000a88:	461d      	mov	r5, r3
 8000a8a:	cd0f      	ldmia	r5!, {r0, r1, r2, r3}
 8000a8c:	c40f      	stmia	r4!, {r0, r1, r2, r3}
 8000a8e:	682b      	ldr	r3, [r5, #0]
 8000a90:	6023      	str	r3, [r4, #0]
	uint8_t lenString = 19;
 8000a92:	2313      	movs	r3, #19
 8000a94:	757b      	strb	r3, [r7, #21]
	while (1) {
		/* USER CODE END WHILE */

		/* USER CODE BEGIN 3 */

		if (nextStringSequence) {
 8000a96:	4b1f      	ldr	r3, [pc, #124]	; (8000b14 <main+0x114>)
 8000a98:	781b      	ldrb	r3, [r3, #0]
 8000a9a:	2b00      	cmp	r3, #0
 8000a9c:	d0fb      	beq.n	8000a96 <main+0x96>
			nextStringSequence = false;
 8000a9e:	4b1d      	ldr	r3, [pc, #116]	; (8000b14 <main+0x114>)
 8000aa0:	2200      	movs	r2, #0
 8000aa2:	701a      	strb	r2, [r3, #0]
			displayString(index, string, lenString);
 8000aa4:	7d7a      	ldrb	r2, [r7, #21]
 8000aa6:	4639      	mov	r1, r7
 8000aa8:	7dbb      	ldrb	r3, [r7, #22]
 8000aaa:	4618      	mov	r0, r3
 8000aac:	f000 f868 	bl	8000b80 <displayString>
			if (index + STR_DISP_LEN < lenString
 8000ab0:	7dbb      	ldrb	r3, [r7, #22]
 8000ab2:	1d1a      	adds	r2, r3, #4
 8000ab4:	7d7b      	ldrb	r3, [r7, #21]
 8000ab6:	429a      	cmp	r2, r3
 8000ab8:	da06      	bge.n	8000ac8 <main+0xc8>
					&& direction == Direction_DownUp) {
 8000aba:	7dfb      	ldrb	r3, [r7, #23]
 8000abc:	2b00      	cmp	r3, #0
 8000abe:	d103      	bne.n	8000ac8 <main+0xc8>
				index++;
 8000ac0:	7dbb      	ldrb	r3, [r7, #22]
 8000ac2:	3301      	adds	r3, #1
 8000ac4:	75bb      	strb	r3, [r7, #22]
 8000ac6:	e009      	b.n	8000adc <main+0xdc>
			} else if (index + STR_DISP_LEN >= lenString
 8000ac8:	7dbb      	ldrb	r3, [r7, #22]
 8000aca:	1d1a      	adds	r2, r3, #4
 8000acc:	7d7b      	ldrb	r3, [r7, #21]
 8000ace:	429a      	cmp	r2, r3
 8000ad0:	db04      	blt.n	8000adc <main+0xdc>
					&& direction == Direction_DownUp) {
 8000ad2:	7dfb      	ldrb	r3, [r7, #23]
 8000ad4:	2b00      	cmp	r3, #0
 8000ad6:	d101      	bne.n	8000adc <main+0xdc>
				direction = Direction_UpDown;
 8000ad8:	2301      	movs	r3, #1
 8000ada:	75fb      	strb	r3, [r7, #23]
			}

			if (index > 0 && direction == Direction_UpDown) {
 8000adc:	7dbb      	ldrb	r3, [r7, #22]
 8000ade:	2b00      	cmp	r3, #0
 8000ae0:	d006      	beq.n	8000af0 <main+0xf0>
 8000ae2:	7dfb      	ldrb	r3, [r7, #23]
 8000ae4:	2b01      	cmp	r3, #1
 8000ae6:	d103      	bne.n	8000af0 <main+0xf0>
				index--;
 8000ae8:	7dbb      	ldrb	r3, [r7, #22]
 8000aea:	3b01      	subs	r3, #1
 8000aec:	75bb      	strb	r3, [r7, #22]
 8000aee:	e007      	b.n	8000b00 <main+0x100>
			} else if (index == 0 && direction == Direction_UpDown) {
 8000af0:	7dbb      	ldrb	r3, [r7, #22]
 8000af2:	2b00      	cmp	r3, #0
 8000af4:	d1cf      	bne.n	8000a96 <main+0x96>
 8000af6:	7dfb      	ldrb	r3, [r7, #23]
 8000af8:	2b01      	cmp	r3, #1
 8000afa:	d1cc      	bne.n	8000a96 <main+0x96>
				direction = Direction_DownUp;
 8000afc:	2300      	movs	r3, #0
 8000afe:	75fb      	strb	r3, [r7, #23]
		if (nextStringSequence) {
 8000b00:	e7c9      	b.n	8000a96 <main+0x96>
 8000b02:	bf00      	nop
 8000b04:	20000030 	.word	0x20000030
 8000b08:	20000028 	.word	0x20000028
 8000b0c:	20000024 	.word	0x20000024
 8000b10:	2000002c 	.word	0x2000002c
 8000b14:	20000032 	.word	0x20000032
 8000b18:	08001540 	.word	0x08001540

08000b1c <SystemClock_Config>:
/**
 * @brief System Clock Configuration
 * @retval None
 */

void SystemClock_Config(void) {
 8000b1c:	b580      	push	{r7, lr}
 8000b1e:	af00      	add	r7, sp, #0
	LL_FLASH_SetLatency(LL_FLASH_LATENCY_0);
 8000b20:	2000      	movs	r0, #0
 8000b22:	f7ff ff4b 	bl	80009bc <LL_FLASH_SetLatency>
	while (LL_FLASH_GetLatency() != LL_FLASH_LATENCY_0) {
 8000b26:	bf00      	nop
 8000b28:	f7ff ff5c 	bl	80009e4 <LL_FLASH_GetLatency>
 8000b2c:	4603      	mov	r3, r0
 8000b2e:	2b00      	cmp	r3, #0
 8000b30:	d1fa      	bne.n	8000b28 <SystemClock_Config+0xc>
	}
	LL_RCC_HSI_Enable();
 8000b32:	f7ff fe7d 	bl	8000830 <LL_RCC_HSI_Enable>

	/* Wait till HSI is ready */
	while (LL_RCC_HSI_IsReady() != 1) {
 8000b36:	bf00      	nop
 8000b38:	f7ff fe8a 	bl	8000850 <LL_RCC_HSI_IsReady>
 8000b3c:	4603      	mov	r3, r0
 8000b3e:	2b01      	cmp	r3, #1
 8000b40:	d1fa      	bne.n	8000b38 <SystemClock_Config+0x1c>

	}
	LL_RCC_HSI_SetCalibTrimming(16);
 8000b42:	2010      	movs	r0, #16
 8000b44:	f7ff fe96 	bl	8000874 <LL_RCC_HSI_SetCalibTrimming>
	LL_RCC_SetAHBPrescaler(LL_RCC_SYSCLK_DIV_1);
 8000b48:	2000      	movs	r0, #0
 8000b4a:	f7ff fecb 	bl	80008e4 <LL_RCC_SetAHBPrescaler>
	LL_RCC_SetAPB1Prescaler(LL_RCC_APB1_DIV_1);
 8000b4e:	2000      	movs	r0, #0
 8000b50:	f7ff fedc 	bl	800090c <LL_RCC_SetAPB1Prescaler>
	LL_RCC_SetAPB2Prescaler(LL_RCC_APB2_DIV_1);
 8000b54:	2000      	movs	r0, #0
 8000b56:	f7ff feed 	bl	8000934 <LL_RCC_SetAPB2Prescaler>
	LL_RCC_SetSysClkSource(LL_RCC_SYS_CLKSOURCE_HSI);
 8000b5a:	2000      	movs	r0, #0
 8000b5c:	f7ff fea0 	bl	80008a0 <LL_RCC_SetSysClkSource>

	/* Wait till System clock is ready */
	while (LL_RCC_GetSysClkSource() != LL_RCC_SYS_CLKSOURCE_STATUS_HSI) {
 8000b60:	bf00      	nop
 8000b62:	f7ff feb1 	bl	80008c8 <LL_RCC_GetSysClkSource>
 8000b66:	4603      	mov	r3, r0
 8000b68:	2b00      	cmp	r3, #0
 8000b6a:	d1fa      	bne.n	8000b62 <SystemClock_Config+0x46>

	}
	LL_Init1msTick(8000000);
 8000b6c:	4803      	ldr	r0, [pc, #12]	; (8000b7c <SystemClock_Config+0x60>)
 8000b6e:	f000 fc99 	bl	80014a4 <LL_Init1msTick>
	LL_SetSystemCoreClock(8000000);
 8000b72:	4802      	ldr	r0, [pc, #8]	; (8000b7c <SystemClock_Config+0x60>)
 8000b74:	f000 fca4 	bl	80014c0 <LL_SetSystemCoreClock>
}
 8000b78:	bf00      	nop
 8000b7a:	bd80      	pop	{r7, pc}
 8000b7c:	007a1200 	.word	0x007a1200

08000b80 <displayString>:

/* USER CODE BEGIN 4 */
uint8_t displayString(uint8_t index, uint8_t *str, uint8_t length) {
 8000b80:	b480      	push	{r7}
 8000b82:	b085      	sub	sp, #20
 8000b84:	af00      	add	r7, sp, #0
 8000b86:	4603      	mov	r3, r0
 8000b88:	6039      	str	r1, [r7, #0]
 8000b8a:	71fb      	strb	r3, [r7, #7]
 8000b8c:	4613      	mov	r3, r2
 8000b8e:	71bb      	strb	r3, [r7, #6]
	uint8_t result = 0;
 8000b90:	2300      	movs	r3, #0
 8000b92:	73fb      	strb	r3, [r7, #15]
	if (index + STR_DISP_LEN <= length) {
 8000b94:	79fb      	ldrb	r3, [r7, #7]
 8000b96:	1cda      	adds	r2, r3, #3
 8000b98:	79bb      	ldrb	r3, [r7, #6]
 8000b9a:	429a      	cmp	r2, r3
 8000b9c:	da15      	bge.n	8000bca <displayString+0x4a>
		uint8_t dispStr[STR_DISP_LEN] = { 0 };
 8000b9e:	2300      	movs	r3, #0
 8000ba0:	60bb      	str	r3, [r7, #8]
		memcpy(dispStr, str + index, STR_DISP_LEN);
 8000ba2:	79fb      	ldrb	r3, [r7, #7]
 8000ba4:	683a      	ldr	r2, [r7, #0]
 8000ba6:	4413      	add	r3, r2
 8000ba8:	681b      	ldr	r3, [r3, #0]
 8000baa:	60bb      	str	r3, [r7, #8]
		result = index + STR_DISP_LEN;
 8000bac:	79fb      	ldrb	r3, [r7, #7]
 8000bae:	3304      	adds	r3, #4
 8000bb0:	73fb      	strb	r3, [r7, #15]
		DisplayDigit_0.chr = dispStr[0];
 8000bb2:	7a3a      	ldrb	r2, [r7, #8]
 8000bb4:	4b08      	ldr	r3, [pc, #32]	; (8000bd8 <displayString+0x58>)
 8000bb6:	705a      	strb	r2, [r3, #1]
		DisplayDigit_1.chr = dispStr[1];
 8000bb8:	7a7a      	ldrb	r2, [r7, #9]
 8000bba:	4b08      	ldr	r3, [pc, #32]	; (8000bdc <displayString+0x5c>)
 8000bbc:	705a      	strb	r2, [r3, #1]
		DisplayDigit_2.chr = dispStr[2];
 8000bbe:	7aba      	ldrb	r2, [r7, #10]
 8000bc0:	4b07      	ldr	r3, [pc, #28]	; (8000be0 <displayString+0x60>)
 8000bc2:	705a      	strb	r2, [r3, #1]
		DisplayDigit_3.chr = dispStr[3];
 8000bc4:	7afa      	ldrb	r2, [r7, #11]
 8000bc6:	4b07      	ldr	r3, [pc, #28]	; (8000be4 <displayString+0x64>)
 8000bc8:	705a      	strb	r2, [r3, #1]

	}
	return result;
 8000bca:	7bfb      	ldrb	r3, [r7, #15]
}
 8000bcc:	4618      	mov	r0, r3
 8000bce:	3714      	adds	r7, #20
 8000bd0:	46bd      	mov	sp, r7
 8000bd2:	f85d 7b04 	ldr.w	r7, [sp], #4
 8000bd6:	4770      	bx	lr
 8000bd8:	20000030 	.word	0x20000030
 8000bdc:	20000028 	.word	0x20000028
 8000be0:	20000024 	.word	0x20000024
 8000be4:	2000002c 	.word	0x2000002c

08000be8 <LL_TIM_ClearFlag_UPDATE>:
  * @rmtoll SR           UIF           LL_TIM_ClearFlag_UPDATE
  * @param  TIMx Timer instance
  * @retval None
  */
__STATIC_INLINE void LL_TIM_ClearFlag_UPDATE(TIM_TypeDef *TIMx)
{
 8000be8:	b480      	push	{r7}
 8000bea:	b083      	sub	sp, #12
 8000bec:	af00      	add	r7, sp, #0
 8000bee:	6078      	str	r0, [r7, #4]
  WRITE_REG(TIMx->SR, ~(TIM_SR_UIF));
 8000bf0:	687b      	ldr	r3, [r7, #4]
 8000bf2:	f06f 0201 	mvn.w	r2, #1
 8000bf6:	611a      	str	r2, [r3, #16]
}
 8000bf8:	bf00      	nop
 8000bfa:	370c      	adds	r7, #12
 8000bfc:	46bd      	mov	sp, r7
 8000bfe:	f85d 7b04 	ldr.w	r7, [sp], #4
 8000c02:	4770      	bx	lr

08000c04 <LL_TIM_IsActiveFlag_UPDATE>:
  * @rmtoll SR           UIF           LL_TIM_IsActiveFlag_UPDATE
  * @param  TIMx Timer instance
  * @retval State of bit (1 or 0).
  */
__STATIC_INLINE uint32_t LL_TIM_IsActiveFlag_UPDATE(TIM_TypeDef *TIMx)
{
 8000c04:	b480      	push	{r7}
 8000c06:	b083      	sub	sp, #12
 8000c08:	af00      	add	r7, sp, #0
 8000c0a:	6078      	str	r0, [r7, #4]
  return ((READ_BIT(TIMx->SR, TIM_SR_UIF) == (TIM_SR_UIF)) ? 1UL : 0UL);
 8000c0c:	687b      	ldr	r3, [r7, #4]
 8000c0e:	691b      	ldr	r3, [r3, #16]
 8000c10:	f003 0301 	and.w	r3, r3, #1
 8000c14:	2b01      	cmp	r3, #1
 8000c16:	d101      	bne.n	8000c1c <LL_TIM_IsActiveFlag_UPDATE+0x18>
 8000c18:	2301      	movs	r3, #1
 8000c1a:	e000      	b.n	8000c1e <LL_TIM_IsActiveFlag_UPDATE+0x1a>
 8000c1c:	2300      	movs	r3, #0
}
 8000c1e:	4618      	mov	r0, r3
 8000c20:	370c      	adds	r7, #12
 8000c22:	46bd      	mov	sp, r7
 8000c24:	f85d 7b04 	ldr.w	r7, [sp], #4
 8000c28:	4770      	bx	lr

08000c2a <NMI_Handler>:
/*           Cortex-M4 Processor Interruption and Exception Handlers          */
/******************************************************************************/
/**
 * @brief This function handles Non maskable interrupt.
 */
void NMI_Handler(void) {
 8000c2a:	b480      	push	{r7}
 8000c2c:	af00      	add	r7, sp, #0
	/* USER CODE BEGIN NonMaskableInt_IRQn 0 */

	/* USER CODE END NonMaskableInt_IRQn 0 */
	/* USER CODE BEGIN NonMaskableInt_IRQn 1 */
	while (1) {
 8000c2e:	e7fe      	b.n	8000c2e <NMI_Handler+0x4>

08000c30 <HardFault_Handler>:
}

/**
 * @brief This function handles Hard fault interrupt.
 */
void HardFault_Handler(void) {
 8000c30:	b480      	push	{r7}
 8000c32:	af00      	add	r7, sp, #0
	/* USER CODE BEGIN HardFault_IRQn 0 */

	/* USER CODE END HardFault_IRQn 0 */
	while (1) {
 8000c34:	e7fe      	b.n	8000c34 <HardFault_Handler+0x4>

08000c36 <MemManage_Handler>:
}

/**
 * @brief This function handles Memory management fault.
 */
void MemManage_Handler(void) {
 8000c36:	b480      	push	{r7}
 8000c38:	af00      	add	r7, sp, #0
	/* USER CODE BEGIN MemoryManagement_IRQn 0 */

	/* USER CODE END MemoryManagement_IRQn 0 */
	while (1) {
 8000c3a:	e7fe      	b.n	8000c3a <MemManage_Handler+0x4>

08000c3c <BusFault_Handler>:
}

/**
 * @brief This function handles Pre-fetch fault, memory access fault.
 */
void BusFault_Handler(void) {
 8000c3c:	b480      	push	{r7}
 8000c3e:	af00      	add	r7, sp, #0
	/* USER CODE BEGIN BusFault_IRQn 0 */

	/* USER CODE END BusFault_IRQn 0 */
	while (1) {
 8000c40:	e7fe      	b.n	8000c40 <BusFault_Handler+0x4>

08000c42 <UsageFault_Handler>:
}

/**
 * @brief This function handles Undefined instruction or illegal state.
 */
void UsageFault_Handler(void) {
 8000c42:	b480      	push	{r7}
 8000c44:	af00      	add	r7, sp, #0
	/* USER CODE BEGIN UsageFault_IRQn 0 */

	/* USER CODE END UsageFault_IRQn 0 */
	while (1) {
 8000c46:	e7fe      	b.n	8000c46 <UsageFault_Handler+0x4>

08000c48 <SVC_Handler>:
}

/**
 * @brief This function handles System service call via SWI instruction.
 */
void SVC_Handler(void) {
 8000c48:	b480      	push	{r7}
 8000c4a:	af00      	add	r7, sp, #0

	/* USER CODE END SVCall_IRQn 0 */
	/* USER CODE BEGIN SVCall_IRQn 1 */

	/* USER CODE END SVCall_IRQn 1 */
}
 8000c4c:	bf00      	nop
 8000c4e:	46bd      	mov	sp, r7
 8000c50:	f85d 7b04 	ldr.w	r7, [sp], #4
 8000c54:	4770      	bx	lr

08000c56 <DebugMon_Handler>:

/**
 * @brief This function handles Debug monitor.
 */
void DebugMon_Handler(void) {
 8000c56:	b480      	push	{r7}
 8000c58:	af00      	add	r7, sp, #0

	/* USER CODE END DebugMonitor_IRQn 0 */
	/* USER CODE BEGIN DebugMonitor_IRQn 1 */

	/* USER CODE END DebugMonitor_IRQn 1 */
}
 8000c5a:	bf00      	nop
 8000c5c:	46bd      	mov	sp, r7
 8000c5e:	f85d 7b04 	ldr.w	r7, [sp], #4
 8000c62:	4770      	bx	lr

08000c64 <PendSV_Handler>:

/**
 * @brief This function handles Pendable request for system service.
 */
void PendSV_Handler(void) {
 8000c64:	b480      	push	{r7}
 8000c66:	af00      	add	r7, sp, #0

	/* USER CODE END PendSV_IRQn 0 */
	/* USER CODE BEGIN PendSV_IRQn 1 */

	/* USER CODE END PendSV_IRQn 1 */
}
 8000c68:	bf00      	nop
 8000c6a:	46bd      	mov	sp, r7
 8000c6c:	f85d 7b04 	ldr.w	r7, [sp], #4
 8000c70:	4770      	bx	lr

08000c72 <SysTick_Handler>:

/**
 * @brief This function handles System tick timer.
 */
void SysTick_Handler(void) {
 8000c72:	b480      	push	{r7}
 8000c74:	af00      	add	r7, sp, #0
	/* USER CODE END SysTick_IRQn 0 */

	/* USER CODE BEGIN SysTick_IRQn 1 */

	/* USER CODE END SysTick_IRQn 1 */
}
 8000c76:	bf00      	nop
 8000c78:	46bd      	mov	sp, r7
 8000c7a:	f85d 7b04 	ldr.w	r7, [sp], #4
 8000c7e:	4770      	bx	lr

08000c80 <TIM6_DAC1_IRQHandler>:
/******************************************************************************/

/**
 * @brief This function handles TIM6 global and DAC1 underrun error interrupts.
 */
void TIM6_DAC1_IRQHandler(void) {
 8000c80:	b580      	push	{r7, lr}
 8000c82:	af00      	add	r7, sp, #0
	/* USER CODE BEGIN TIM6_DAC1_IRQn 0 */
	if (LL_TIM_IsActiveFlag_UPDATE(TIM6)) {
 8000c84:	4806      	ldr	r0, [pc, #24]	; (8000ca0 <TIM6_DAC1_IRQHandler+0x20>)
 8000c86:	f7ff ffbd 	bl	8000c04 <LL_TIM_IsActiveFlag_UPDATE>
 8000c8a:	4603      	mov	r3, r0
 8000c8c:	2b00      	cmp	r3, #0
 8000c8e:	d001      	beq.n	8000c94 <TIM6_DAC1_IRQHandler+0x14>
		updateDisplay();
 8000c90:	f7ff fbba 	bl	8000408 <updateDisplay>
	}
	/* USER CODE END TIM6_DAC1_IRQn 0 */

	/* USER CODE BEGIN TIM6_DAC1_IRQn 1 */

	LL_TIM_ClearFlag_UPDATE(TIM6);
 8000c94:	4802      	ldr	r0, [pc, #8]	; (8000ca0 <TIM6_DAC1_IRQHandler+0x20>)
 8000c96:	f7ff ffa7 	bl	8000be8 <LL_TIM_ClearFlag_UPDATE>
	/* USER CODE END TIM6_DAC1_IRQn 1 */
}
 8000c9a:	bf00      	nop
 8000c9c:	bd80      	pop	{r7, pc}
 8000c9e:	bf00      	nop
 8000ca0:	40001000 	.word	0x40001000

08000ca4 <TIM7_DAC2_IRQHandler>:

/**
 * @brief This function handles TIM7 global and DAC2 underrun error interrupts.
 */
void TIM7_DAC2_IRQHandler(void) {
 8000ca4:	b580      	push	{r7, lr}
 8000ca6:	af00      	add	r7, sp, #0
	/* USER CODE BEGIN TIM7_DAC2_IRQn 0 */
	if (LL_TIM_IsActiveFlag_UPDATE(TIM7)) {
 8000ca8:	4806      	ldr	r0, [pc, #24]	; (8000cc4 <TIM7_DAC2_IRQHandler+0x20>)
 8000caa:	f7ff ffab 	bl	8000c04 <LL_TIM_IsActiveFlag_UPDATE>
 8000cae:	4603      	mov	r3, r0
 8000cb0:	2b00      	cmp	r3, #0
 8000cb2:	d002      	beq.n	8000cba <TIM7_DAC2_IRQHandler+0x16>
		nextStringSequence = true;
 8000cb4:	4b04      	ldr	r3, [pc, #16]	; (8000cc8 <TIM7_DAC2_IRQHandler+0x24>)
 8000cb6:	2201      	movs	r2, #1
 8000cb8:	701a      	strb	r2, [r3, #0]
	}
	/* USER CODE END TIM7_DAC2_IRQn 0 */

	/* USER CODE BEGIN TIM7_DAC2_IRQn 1 */
	LL_TIM_ClearFlag_UPDATE(TIM7);
 8000cba:	4802      	ldr	r0, [pc, #8]	; (8000cc4 <TIM7_DAC2_IRQHandler+0x20>)
 8000cbc:	f7ff ff94 	bl	8000be8 <LL_TIM_ClearFlag_UPDATE>
	/* USER CODE END TIM7_DAC2_IRQn 1 */
}
 8000cc0:	bf00      	nop
 8000cc2:	bd80      	pop	{r7, pc}
 8000cc4:	40001400 	.word	0x40001400
 8000cc8:	20000032 	.word	0x20000032

08000ccc <SystemInit>:
  * @brief  Setup the microcontroller system
  * @param  None
  * @retval None
  */
void SystemInit(void)
{
 8000ccc:	b480      	push	{r7}
 8000cce:	af00      	add	r7, sp, #0
/* FPU settings --------------------------------------------------------------*/
#if (__FPU_PRESENT == 1) && (__FPU_USED == 1)
  SCB->CPACR |= ((3UL << 10*2)|(3UL << 11*2));  /* set CP10 and CP11 Full Access */
 8000cd0:	4b06      	ldr	r3, [pc, #24]	; (8000cec <SystemInit+0x20>)
 8000cd2:	f8d3 3088 	ldr.w	r3, [r3, #136]	; 0x88
 8000cd6:	4a05      	ldr	r2, [pc, #20]	; (8000cec <SystemInit+0x20>)
 8000cd8:	f443 0370 	orr.w	r3, r3, #15728640	; 0xf00000
 8000cdc:	f8c2 3088 	str.w	r3, [r2, #136]	; 0x88

  /* Configure the Vector Table location -------------------------------------*/
#if defined(USER_VECT_TAB_ADDRESS)
  SCB->VTOR = VECT_TAB_BASE_ADDRESS | VECT_TAB_OFFSET; /* Vector Table Relocation in Internal SRAM */
#endif /* USER_VECT_TAB_ADDRESS */
}
 8000ce0:	bf00      	nop
 8000ce2:	46bd      	mov	sp, r7
 8000ce4:	f85d 7b04 	ldr.w	r7, [sp], #4
 8000ce8:	4770      	bx	lr
 8000cea:	bf00      	nop
 8000cec:	e000ed00 	.word	0xe000ed00

08000cf0 <__NVIC_GetPriorityGrouping>:
{
 8000cf0:	b480      	push	{r7}
 8000cf2:	af00      	add	r7, sp, #0
  return ((uint32_t)((SCB->AIRCR & SCB_AIRCR_PRIGROUP_Msk) >> SCB_AIRCR_PRIGROUP_Pos));
 8000cf4:	4b04      	ldr	r3, [pc, #16]	; (8000d08 <__NVIC_GetPriorityGrouping+0x18>)
 8000cf6:	68db      	ldr	r3, [r3, #12]
 8000cf8:	0a1b      	lsrs	r3, r3, #8
 8000cfa:	f003 0307 	and.w	r3, r3, #7
}
 8000cfe:	4618      	mov	r0, r3
 8000d00:	46bd      	mov	sp, r7
 8000d02:	f85d 7b04 	ldr.w	r7, [sp], #4
 8000d06:	4770      	bx	lr
 8000d08:	e000ed00 	.word	0xe000ed00

08000d0c <__NVIC_EnableIRQ>:
{
 8000d0c:	b480      	push	{r7}
 8000d0e:	b083      	sub	sp, #12
 8000d10:	af00      	add	r7, sp, #0
 8000d12:	4603      	mov	r3, r0
 8000d14:	71fb      	strb	r3, [r7, #7]
  if ((int32_t)(IRQn) >= 0)
 8000d16:	f997 3007 	ldrsb.w	r3, [r7, #7]
 8000d1a:	2b00      	cmp	r3, #0
 8000d1c:	db0b      	blt.n	8000d36 <__NVIC_EnableIRQ+0x2a>
    NVIC->ISER[(((uint32_t)IRQn) >> 5UL)] = (uint32_t)(1UL << (((uint32_t)IRQn) & 0x1FUL));
 8000d1e:	79fb      	ldrb	r3, [r7, #7]
 8000d20:	f003 021f 	and.w	r2, r3, #31
 8000d24:	4907      	ldr	r1, [pc, #28]	; (8000d44 <__NVIC_EnableIRQ+0x38>)
 8000d26:	f997 3007 	ldrsb.w	r3, [r7, #7]
 8000d2a:	095b      	lsrs	r3, r3, #5
 8000d2c:	2001      	movs	r0, #1
 8000d2e:	fa00 f202 	lsl.w	r2, r0, r2
 8000d32:	f841 2023 	str.w	r2, [r1, r3, lsl #2]
}
 8000d36:	bf00      	nop
 8000d38:	370c      	adds	r7, #12
 8000d3a:	46bd      	mov	sp, r7
 8000d3c:	f85d 7b04 	ldr.w	r7, [sp], #4
 8000d40:	4770      	bx	lr
 8000d42:	bf00      	nop
 8000d44:	e000e100 	.word	0xe000e100

08000d48 <__NVIC_SetPriority>:
{
 8000d48:	b480      	push	{r7}
 8000d4a:	b083      	sub	sp, #12
 8000d4c:	af00      	add	r7, sp, #0
 8000d4e:	4603      	mov	r3, r0
 8000d50:	6039      	str	r1, [r7, #0]
 8000d52:	71fb      	strb	r3, [r7, #7]
  if ((int32_t)(IRQn) >= 0)
 8000d54:	f997 3007 	ldrsb.w	r3, [r7, #7]
 8000d58:	2b00      	cmp	r3, #0
 8000d5a:	db0a      	blt.n	8000d72 <__NVIC_SetPriority+0x2a>
    NVIC->IP[((uint32_t)IRQn)]               = (uint8_t)((priority << (8U - __NVIC_PRIO_BITS)) & (uint32_t)0xFFUL);
 8000d5c:	683b      	ldr	r3, [r7, #0]
 8000d5e:	b2da      	uxtb	r2, r3
 8000d60:	490c      	ldr	r1, [pc, #48]	; (8000d94 <__NVIC_SetPriority+0x4c>)
 8000d62:	f997 3007 	ldrsb.w	r3, [r7, #7]
 8000d66:	0112      	lsls	r2, r2, #4
 8000d68:	b2d2      	uxtb	r2, r2
 8000d6a:	440b      	add	r3, r1
 8000d6c:	f883 2300 	strb.w	r2, [r3, #768]	; 0x300
}
 8000d70:	e00a      	b.n	8000d88 <__NVIC_SetPriority+0x40>
    SCB->SHP[(((uint32_t)IRQn) & 0xFUL)-4UL] = (uint8_t)((priority << (8U - __NVIC_PRIO_BITS)) & (uint32_t)0xFFUL);
 8000d72:	683b      	ldr	r3, [r7, #0]
 8000d74:	b2da      	uxtb	r2, r3
 8000d76:	4908      	ldr	r1, [pc, #32]	; (8000d98 <__NVIC_SetPriority+0x50>)
 8000d78:	79fb      	ldrb	r3, [r7, #7]
 8000d7a:	f003 030f 	and.w	r3, r3, #15
 8000d7e:	3b04      	subs	r3, #4
 8000d80:	0112      	lsls	r2, r2, #4
 8000d82:	b2d2      	uxtb	r2, r2
 8000d84:	440b      	add	r3, r1
 8000d86:	761a      	strb	r2, [r3, #24]
}
 8000d88:	bf00      	nop
 8000d8a:	370c      	adds	r7, #12
 8000d8c:	46bd      	mov	sp, r7
 8000d8e:	f85d 7b04 	ldr.w	r7, [sp], #4
 8000d92:	4770      	bx	lr
 8000d94:	e000e100 	.word	0xe000e100
 8000d98:	e000ed00 	.word	0xe000ed00

08000d9c <NVIC_EncodePriority>:
{
 8000d9c:	b480      	push	{r7}
 8000d9e:	b089      	sub	sp, #36	; 0x24
 8000da0:	af00      	add	r7, sp, #0
 8000da2:	60f8      	str	r0, [r7, #12]
 8000da4:	60b9      	str	r1, [r7, #8]
 8000da6:	607a      	str	r2, [r7, #4]
  uint32_t PriorityGroupTmp = (PriorityGroup & (uint32_t)0x07UL);   /* only values 0..7 are used          */
 8000da8:	68fb      	ldr	r3, [r7, #12]
 8000daa:	f003 0307 	and.w	r3, r3, #7
 8000dae:	61fb      	str	r3, [r7, #28]
  PreemptPriorityBits = ((7UL - PriorityGroupTmp) > (uint32_t)(__NVIC_PRIO_BITS)) ? (uint32_t)(__NVIC_PRIO_BITS) : (uint32_t)(7UL - PriorityGroupTmp);
 8000db0:	69fb      	ldr	r3, [r7, #28]
 8000db2:	f1c3 0307 	rsb	r3, r3, #7
 8000db6:	2b04      	cmp	r3, #4
 8000db8:	bf28      	it	cs
 8000dba:	2304      	movcs	r3, #4
 8000dbc:	61bb      	str	r3, [r7, #24]
  SubPriorityBits     = ((PriorityGroupTmp + (uint32_t)(__NVIC_PRIO_BITS)) < (uint32_t)7UL) ? (uint32_t)0UL : (uint32_t)((PriorityGroupTmp - 7UL) + (uint32_t)(__NVIC_PRIO_BITS));
 8000dbe:	69fb      	ldr	r3, [r7, #28]
 8000dc0:	3304      	adds	r3, #4
 8000dc2:	2b06      	cmp	r3, #6
 8000dc4:	d902      	bls.n	8000dcc <NVIC_EncodePriority+0x30>
 8000dc6:	69fb      	ldr	r3, [r7, #28]
 8000dc8:	3b03      	subs	r3, #3
 8000dca:	e000      	b.n	8000dce <NVIC_EncodePriority+0x32>
 8000dcc:	2300      	movs	r3, #0
 8000dce:	617b      	str	r3, [r7, #20]
           ((PreemptPriority & (uint32_t)((1UL << (PreemptPriorityBits)) - 1UL)) << SubPriorityBits) |
 8000dd0:	f04f 32ff 	mov.w	r2, #4294967295
 8000dd4:	69bb      	ldr	r3, [r7, #24]
 8000dd6:	fa02 f303 	lsl.w	r3, r2, r3
 8000dda:	43da      	mvns	r2, r3
 8000ddc:	68bb      	ldr	r3, [r7, #8]
 8000dde:	401a      	ands	r2, r3
 8000de0:	697b      	ldr	r3, [r7, #20]
 8000de2:	409a      	lsls	r2, r3
           ((SubPriority     & (uint32_t)((1UL << (SubPriorityBits    )) - 1UL)))
 8000de4:	f04f 31ff 	mov.w	r1, #4294967295
 8000de8:	697b      	ldr	r3, [r7, #20]
 8000dea:	fa01 f303 	lsl.w	r3, r1, r3
 8000dee:	43d9      	mvns	r1, r3
 8000df0:	687b      	ldr	r3, [r7, #4]
 8000df2:	400b      	ands	r3, r1
           ((PreemptPriority & (uint32_t)((1UL << (PreemptPriorityBits)) - 1UL)) << SubPriorityBits) |
 8000df4:	4313      	orrs	r3, r2
}
 8000df6:	4618      	mov	r0, r3
 8000df8:	3724      	adds	r7, #36	; 0x24
 8000dfa:	46bd      	mov	sp, r7
 8000dfc:	f85d 7b04 	ldr.w	r7, [sp], #4
 8000e00:	4770      	bx	lr
	...

08000e04 <LL_APB1_GRP1_EnableClock>:
{
 8000e04:	b480      	push	{r7}
 8000e06:	b085      	sub	sp, #20
 8000e08:	af00      	add	r7, sp, #0
 8000e0a:	6078      	str	r0, [r7, #4]
  SET_BIT(RCC->APB1ENR, Periphs);
 8000e0c:	4b08      	ldr	r3, [pc, #32]	; (8000e30 <LL_APB1_GRP1_EnableClock+0x2c>)
 8000e0e:	69da      	ldr	r2, [r3, #28]
 8000e10:	4907      	ldr	r1, [pc, #28]	; (8000e30 <LL_APB1_GRP1_EnableClock+0x2c>)
 8000e12:	687b      	ldr	r3, [r7, #4]
 8000e14:	4313      	orrs	r3, r2
 8000e16:	61cb      	str	r3, [r1, #28]
  tmpreg = READ_BIT(RCC->APB1ENR, Periphs);
 8000e18:	4b05      	ldr	r3, [pc, #20]	; (8000e30 <LL_APB1_GRP1_EnableClock+0x2c>)
 8000e1a:	69da      	ldr	r2, [r3, #28]
 8000e1c:	687b      	ldr	r3, [r7, #4]
 8000e1e:	4013      	ands	r3, r2
 8000e20:	60fb      	str	r3, [r7, #12]
  (void)tmpreg;
 8000e22:	68fb      	ldr	r3, [r7, #12]
}
 8000e24:	bf00      	nop
 8000e26:	3714      	adds	r7, #20
 8000e28:	46bd      	mov	sp, r7
 8000e2a:	f85d 7b04 	ldr.w	r7, [sp], #4
 8000e2e:	4770      	bx	lr
 8000e30:	40021000 	.word	0x40021000

08000e34 <LL_TIM_EnableCounter>:
{
 8000e34:	b480      	push	{r7}
 8000e36:	b083      	sub	sp, #12
 8000e38:	af00      	add	r7, sp, #0
 8000e3a:	6078      	str	r0, [r7, #4]
  SET_BIT(TIMx->CR1, TIM_CR1_CEN);
 8000e3c:	687b      	ldr	r3, [r7, #4]
 8000e3e:	681b      	ldr	r3, [r3, #0]
 8000e40:	f043 0201 	orr.w	r2, r3, #1
 8000e44:	687b      	ldr	r3, [r7, #4]
 8000e46:	601a      	str	r2, [r3, #0]
}
 8000e48:	bf00      	nop
 8000e4a:	370c      	adds	r7, #12
 8000e4c:	46bd      	mov	sp, r7
 8000e4e:	f85d 7b04 	ldr.w	r7, [sp], #4
 8000e52:	4770      	bx	lr

08000e54 <LL_TIM_DisableARRPreload>:
{
 8000e54:	b480      	push	{r7}
 8000e56:	b083      	sub	sp, #12
 8000e58:	af00      	add	r7, sp, #0
 8000e5a:	6078      	str	r0, [r7, #4]
  CLEAR_BIT(TIMx->CR1, TIM_CR1_ARPE);
 8000e5c:	687b      	ldr	r3, [r7, #4]
 8000e5e:	681b      	ldr	r3, [r3, #0]
 8000e60:	f023 0280 	bic.w	r2, r3, #128	; 0x80
 8000e64:	687b      	ldr	r3, [r7, #4]
 8000e66:	601a      	str	r2, [r3, #0]
}
 8000e68:	bf00      	nop
 8000e6a:	370c      	adds	r7, #12
 8000e6c:	46bd      	mov	sp, r7
 8000e6e:	f85d 7b04 	ldr.w	r7, [sp], #4
 8000e72:	4770      	bx	lr

08000e74 <LL_TIM_SetTriggerOutput>:
{
 8000e74:	b480      	push	{r7}
 8000e76:	b083      	sub	sp, #12
 8000e78:	af00      	add	r7, sp, #0
 8000e7a:	6078      	str	r0, [r7, #4]
 8000e7c:	6039      	str	r1, [r7, #0]
  MODIFY_REG(TIMx->CR2, TIM_CR2_MMS, TimerSynchronization);
 8000e7e:	687b      	ldr	r3, [r7, #4]
 8000e80:	685b      	ldr	r3, [r3, #4]
 8000e82:	f023 0270 	bic.w	r2, r3, #112	; 0x70
 8000e86:	683b      	ldr	r3, [r7, #0]
 8000e88:	431a      	orrs	r2, r3
 8000e8a:	687b      	ldr	r3, [r7, #4]
 8000e8c:	605a      	str	r2, [r3, #4]
}
 8000e8e:	bf00      	nop
 8000e90:	370c      	adds	r7, #12
 8000e92:	46bd      	mov	sp, r7
 8000e94:	f85d 7b04 	ldr.w	r7, [sp], #4
 8000e98:	4770      	bx	lr

08000e9a <LL_TIM_DisableMasterSlaveMode>:
{
 8000e9a:	b480      	push	{r7}
 8000e9c:	b083      	sub	sp, #12
 8000e9e:	af00      	add	r7, sp, #0
 8000ea0:	6078      	str	r0, [r7, #4]
  CLEAR_BIT(TIMx->SMCR, TIM_SMCR_MSM);
 8000ea2:	687b      	ldr	r3, [r7, #4]
 8000ea4:	689b      	ldr	r3, [r3, #8]
 8000ea6:	f023 0280 	bic.w	r2, r3, #128	; 0x80
 8000eaa:	687b      	ldr	r3, [r7, #4]
 8000eac:	609a      	str	r2, [r3, #8]
}
 8000eae:	bf00      	nop
 8000eb0:	370c      	adds	r7, #12
 8000eb2:	46bd      	mov	sp, r7
 8000eb4:	f85d 7b04 	ldr.w	r7, [sp], #4
 8000eb8:	4770      	bx	lr

08000eba <LL_TIM_EnableIT_UPDATE>:
  * @rmtoll DIER         UIE           LL_TIM_EnableIT_UPDATE
  * @param  TIMx Timer instance
  * @retval None
  */
__STATIC_INLINE void LL_TIM_EnableIT_UPDATE(TIM_TypeDef *TIMx)
{
 8000eba:	b480      	push	{r7}
 8000ebc:	b083      	sub	sp, #12
 8000ebe:	af00      	add	r7, sp, #0
 8000ec0:	6078      	str	r0, [r7, #4]
  SET_BIT(TIMx->DIER, TIM_DIER_UIE);
 8000ec2:	687b      	ldr	r3, [r7, #4]
 8000ec4:	68db      	ldr	r3, [r3, #12]
 8000ec6:	f043 0201 	orr.w	r2, r3, #1
 8000eca:	687b      	ldr	r3, [r7, #4]
 8000ecc:	60da      	str	r2, [r3, #12]
}
 8000ece:	bf00      	nop
 8000ed0:	370c      	adds	r7, #12
 8000ed2:	46bd      	mov	sp, r7
 8000ed4:	f85d 7b04 	ldr.w	r7, [sp], #4
 8000ed8:	4770      	bx	lr
	...

08000edc <MX_TIM6_Init>:
/* USER CODE BEGIN 0 */

/* USER CODE END 0 */

/* TIM6 init function */
void MX_TIM6_Init(void) {
 8000edc:	b580      	push	{r7, lr}
 8000ede:	b086      	sub	sp, #24
 8000ee0:	af00      	add	r7, sp, #0

	/* USER CODE BEGIN TIM6_Init 0 */

	/* USER CODE END TIM6_Init 0 */

	LL_TIM_InitTypeDef TIM_InitStruct = { 0 };
 8000ee2:	1d3b      	adds	r3, r7, #4
 8000ee4:	2200      	movs	r2, #0
 8000ee6:	601a      	str	r2, [r3, #0]
 8000ee8:	605a      	str	r2, [r3, #4]
 8000eea:	609a      	str	r2, [r3, #8]
 8000eec:	60da      	str	r2, [r3, #12]
 8000eee:	611a      	str	r2, [r3, #16]

	/* Peripheral clock enable */
	LL_APB1_GRP1_EnableClock(LL_APB1_GRP1_PERIPH_TIM6);
 8000ef0:	2010      	movs	r0, #16
 8000ef2:	f7ff ff87 	bl	8000e04 <LL_APB1_GRP1_EnableClock>

	/* TIM6 interrupt Init */
	NVIC_SetPriority(TIM6_DAC1_IRQn,
 8000ef6:	f7ff fefb 	bl	8000cf0 <__NVIC_GetPriorityGrouping>
 8000efa:	4603      	mov	r3, r0
 8000efc:	2200      	movs	r2, #0
 8000efe:	2100      	movs	r1, #0
 8000f00:	4618      	mov	r0, r3
 8000f02:	f7ff ff4b 	bl	8000d9c <NVIC_EncodePriority>
 8000f06:	4603      	mov	r3, r0
 8000f08:	4619      	mov	r1, r3
 8000f0a:	2036      	movs	r0, #54	; 0x36
 8000f0c:	f7ff ff1c 	bl	8000d48 <__NVIC_SetPriority>
			NVIC_EncodePriority(NVIC_GetPriorityGrouping(), 0, 0));
	NVIC_EnableIRQ(TIM6_DAC1_IRQn);
 8000f10:	2036      	movs	r0, #54	; 0x36
 8000f12:	f7ff fefb 	bl	8000d0c <__NVIC_EnableIRQ>

	/* USER CODE BEGIN TIM6_Init 1 */

	/* USER CODE END TIM6_Init 1 */
	TIM_InitStruct.Prescaler = 7999;
 8000f16:	f641 733f 	movw	r3, #7999	; 0x1f3f
 8000f1a:	80bb      	strh	r3, [r7, #4]
	TIM_InitStruct.CounterMode = LL_TIM_COUNTERMODE_UP;
 8000f1c:	2300      	movs	r3, #0
 8000f1e:	60bb      	str	r3, [r7, #8]
	TIM_InitStruct.Autoreload = 4;
 8000f20:	2304      	movs	r3, #4
 8000f22:	60fb      	str	r3, [r7, #12]
	LL_TIM_Init(TIM6, &TIM_InitStruct);
 8000f24:	1d3b      	adds	r3, r7, #4
 8000f26:	4619      	mov	r1, r3
 8000f28:	480b      	ldr	r0, [pc, #44]	; (8000f58 <MX_TIM6_Init+0x7c>)
 8000f2a:	f000 fa2f 	bl	800138c <LL_TIM_Init>
	LL_TIM_DisableARRPreload(TIM6);
 8000f2e:	480a      	ldr	r0, [pc, #40]	; (8000f58 <MX_TIM6_Init+0x7c>)
 8000f30:	f7ff ff90 	bl	8000e54 <LL_TIM_DisableARRPreload>
	LL_TIM_SetTriggerOutput(TIM6, LL_TIM_TRGO_RESET);
 8000f34:	2100      	movs	r1, #0
 8000f36:	4808      	ldr	r0, [pc, #32]	; (8000f58 <MX_TIM6_Init+0x7c>)
 8000f38:	f7ff ff9c 	bl	8000e74 <LL_TIM_SetTriggerOutput>
	LL_TIM_DisableMasterSlaveMode(TIM6);
 8000f3c:	4806      	ldr	r0, [pc, #24]	; (8000f58 <MX_TIM6_Init+0x7c>)
 8000f3e:	f7ff ffac 	bl	8000e9a <LL_TIM_DisableMasterSlaveMode>
	/* USER CODE BEGIN TIM6_Init 2 */
	LL_TIM_EnableIT_UPDATE(TIM6);
 8000f42:	4805      	ldr	r0, [pc, #20]	; (8000f58 <MX_TIM6_Init+0x7c>)
 8000f44:	f7ff ffb9 	bl	8000eba <LL_TIM_EnableIT_UPDATE>
	LL_TIM_EnableCounter(TIM6);
 8000f48:	4803      	ldr	r0, [pc, #12]	; (8000f58 <MX_TIM6_Init+0x7c>)
 8000f4a:	f7ff ff73 	bl	8000e34 <LL_TIM_EnableCounter>
	/* USER CODE END TIM6_Init 2 */

}
 8000f4e:	bf00      	nop
 8000f50:	3718      	adds	r7, #24
 8000f52:	46bd      	mov	sp, r7
 8000f54:	bd80      	pop	{r7, pc}
 8000f56:	bf00      	nop
 8000f58:	40001000 	.word	0x40001000

08000f5c <MX_TIM7_Init>:
/* TIM7 init function */
void MX_TIM7_Init(void) {
 8000f5c:	b580      	push	{r7, lr}
 8000f5e:	b086      	sub	sp, #24
 8000f60:	af00      	add	r7, sp, #0

	/* USER CODE BEGIN TIM7_Init 0 */

	/* USER CODE END TIM7_Init 0 */

	LL_TIM_InitTypeDef TIM_InitStruct = { 0 };
 8000f62:	1d3b      	adds	r3, r7, #4
 8000f64:	2200      	movs	r2, #0
 8000f66:	601a      	str	r2, [r3, #0]
 8000f68:	605a      	str	r2, [r3, #4]
 8000f6a:	609a      	str	r2, [r3, #8]
 8000f6c:	60da      	str	r2, [r3, #12]
 8000f6e:	611a      	str	r2, [r3, #16]

	/* Peripheral clock enable */
	LL_APB1_GRP1_EnableClock(LL_APB1_GRP1_PERIPH_TIM7);
 8000f70:	2020      	movs	r0, #32
 8000f72:	f7ff ff47 	bl	8000e04 <LL_APB1_GRP1_EnableClock>

	/* TIM7 interrupt Init */
	NVIC_SetPriority(TIM7_DAC2_IRQn,
 8000f76:	f7ff febb 	bl	8000cf0 <__NVIC_GetPriorityGrouping>
 8000f7a:	4603      	mov	r3, r0
 8000f7c:	2200      	movs	r2, #0
 8000f7e:	2100      	movs	r1, #0
 8000f80:	4618      	mov	r0, r3
 8000f82:	f7ff ff0b 	bl	8000d9c <NVIC_EncodePriority>
 8000f86:	4603      	mov	r3, r0
 8000f88:	4619      	mov	r1, r3
 8000f8a:	2037      	movs	r0, #55	; 0x37
 8000f8c:	f7ff fedc 	bl	8000d48 <__NVIC_SetPriority>
			NVIC_EncodePriority(NVIC_GetPriorityGrouping(), 0, 0));
	NVIC_EnableIRQ(TIM7_DAC2_IRQn);
 8000f90:	2037      	movs	r0, #55	; 0x37
 8000f92:	f7ff febb 	bl	8000d0c <__NVIC_EnableIRQ>

	/* USER CODE BEGIN TIM7_Init 1 */

	/* USER CODE END TIM7_Init 1 */
	TIM_InitStruct.Prescaler = 7999;
 8000f96:	f641 733f 	movw	r3, #7999	; 0x1f3f
 8000f9a:	80bb      	strh	r3, [r7, #4]
	TIM_InitStruct.CounterMode = LL_TIM_COUNTERMODE_UP;
 8000f9c:	2300      	movs	r3, #0
 8000f9e:	60bb      	str	r3, [r7, #8]
	TIM_InitStruct.Autoreload = 499;
 8000fa0:	f240 13f3 	movw	r3, #499	; 0x1f3
 8000fa4:	60fb      	str	r3, [r7, #12]
	LL_TIM_Init(TIM7, &TIM_InitStruct);
 8000fa6:	1d3b      	adds	r3, r7, #4
 8000fa8:	4619      	mov	r1, r3
 8000faa:	480b      	ldr	r0, [pc, #44]	; (8000fd8 <MX_TIM7_Init+0x7c>)
 8000fac:	f000 f9ee 	bl	800138c <LL_TIM_Init>
	LL_TIM_DisableARRPreload(TIM7);
 8000fb0:	4809      	ldr	r0, [pc, #36]	; (8000fd8 <MX_TIM7_Init+0x7c>)
 8000fb2:	f7ff ff4f 	bl	8000e54 <LL_TIM_DisableARRPreload>
	LL_TIM_SetTriggerOutput(TIM7, LL_TIM_TRGO_RESET);
 8000fb6:	2100      	movs	r1, #0
 8000fb8:	4807      	ldr	r0, [pc, #28]	; (8000fd8 <MX_TIM7_Init+0x7c>)
 8000fba:	f7ff ff5b 	bl	8000e74 <LL_TIM_SetTriggerOutput>
	LL_TIM_DisableMasterSlaveMode(TIM7);
 8000fbe:	4806      	ldr	r0, [pc, #24]	; (8000fd8 <MX_TIM7_Init+0x7c>)
 8000fc0:	f7ff ff6b 	bl	8000e9a <LL_TIM_DisableMasterSlaveMode>
	/* USER CODE BEGIN TIM7_Init 2 */
	LL_TIM_EnableIT_UPDATE(TIM7);
 8000fc4:	4804      	ldr	r0, [pc, #16]	; (8000fd8 <MX_TIM7_Init+0x7c>)
 8000fc6:	f7ff ff78 	bl	8000eba <LL_TIM_EnableIT_UPDATE>
	LL_TIM_EnableCounter(TIM7);
 8000fca:	4803      	ldr	r0, [pc, #12]	; (8000fd8 <MX_TIM7_Init+0x7c>)
 8000fcc:	f7ff ff32 	bl	8000e34 <LL_TIM_EnableCounter>
	/* USER CODE END TIM7_Init 2 */

}
 8000fd0:	bf00      	nop
 8000fd2:	3718      	adds	r7, #24
 8000fd4:	46bd      	mov	sp, r7
 8000fd6:	bd80      	pop	{r7, pc}
 8000fd8:	40001400 	.word	0x40001400

08000fdc <Reset_Handler>:

    .section	.text.Reset_Handler
	.weak	Reset_Handler
	.type	Reset_Handler, %function
Reset_Handler:
  ldr   sp, =_estack    /* Atollic update: set stack pointer */
 8000fdc:	f8df d034 	ldr.w	sp, [pc, #52]	; 8001014 <LoopForever+0x2>

/* Copy the data segment initializers from flash to SRAM */
  ldr r0, =_sdata
 8000fe0:	480d      	ldr	r0, [pc, #52]	; (8001018 <LoopForever+0x6>)
  ldr r1, =_edata
 8000fe2:	490e      	ldr	r1, [pc, #56]	; (800101c <LoopForever+0xa>)
  ldr r2, =_sidata
 8000fe4:	4a0e      	ldr	r2, [pc, #56]	; (8001020 <LoopForever+0xe>)
  movs r3, #0
 8000fe6:	2300      	movs	r3, #0
  b LoopCopyDataInit
 8000fe8:	e002      	b.n	8000ff0 <LoopCopyDataInit>

08000fea <CopyDataInit>:

CopyDataInit:
  ldr r4, [r2, r3]
 8000fea:	58d4      	ldr	r4, [r2, r3]
  str r4, [r0, r3]
 8000fec:	50c4      	str	r4, [r0, r3]
  adds r3, r3, #4
 8000fee:	3304      	adds	r3, #4

08000ff0 <LoopCopyDataInit>:

LoopCopyDataInit:
  adds r4, r0, r3
 8000ff0:	18c4      	adds	r4, r0, r3
  cmp r4, r1
 8000ff2:	428c      	cmp	r4, r1
  bcc CopyDataInit
 8000ff4:	d3f9      	bcc.n	8000fea <CopyDataInit>
  
/* Zero fill the bss segment. */
  ldr r2, =_sbss
 8000ff6:	4a0b      	ldr	r2, [pc, #44]	; (8001024 <LoopForever+0x12>)
  ldr r4, =_ebss
 8000ff8:	4c0b      	ldr	r4, [pc, #44]	; (8001028 <LoopForever+0x16>)
  movs r3, #0
 8000ffa:	2300      	movs	r3, #0
  b LoopFillZerobss
 8000ffc:	e001      	b.n	8001002 <LoopFillZerobss>

08000ffe <FillZerobss>:

FillZerobss:
  str  r3, [r2]
 8000ffe:	6013      	str	r3, [r2, #0]
  adds r2, r2, #4
 8001000:	3204      	adds	r2, #4

08001002 <LoopFillZerobss>:

LoopFillZerobss:
  cmp r2, r4
 8001002:	42a2      	cmp	r2, r4
  bcc FillZerobss
 8001004:	d3fb      	bcc.n	8000ffe <FillZerobss>

/* Call the clock system intitialization function.*/
    bl  SystemInit
 8001006:	f7ff fe61 	bl	8000ccc <SystemInit>
/* Call static constructors */
    bl __libc_init_array
 800100a:	f000 fa69 	bl	80014e0 <__libc_init_array>
/* Call the application's entry point.*/
	bl	main
 800100e:	f7ff fcf7 	bl	8000a00 <main>

08001012 <LoopForever>:

LoopForever:
    b LoopForever
 8001012:	e7fe      	b.n	8001012 <LoopForever>
  ldr   sp, =_estack    /* Atollic update: set stack pointer */
 8001014:	20003000 	.word	0x20003000
  ldr r0, =_sdata
 8001018:	20000000 	.word	0x20000000
  ldr r1, =_edata
 800101c:	20000004 	.word	0x20000004
  ldr r2, =_sidata
 8001020:	08001584 	.word	0x08001584
  ldr r2, =_sbss
 8001024:	20000004 	.word	0x20000004
  ldr r4, =_ebss
 8001028:	20000034 	.word	0x20000034

0800102c <ADC1_2_IRQHandler>:
 * @retval : None
*/
    .section	.text.Default_Handler,"ax",%progbits
Default_Handler:
Infinite_Loop:
	b	Infinite_Loop
 800102c:	e7fe      	b.n	800102c <ADC1_2_IRQHandler>

0800102e <LL_GPIO_SetPinMode>:
{
 800102e:	b480      	push	{r7}
 8001030:	b089      	sub	sp, #36	; 0x24
 8001032:	af00      	add	r7, sp, #0
 8001034:	60f8      	str	r0, [r7, #12]
 8001036:	60b9      	str	r1, [r7, #8]
 8001038:	607a      	str	r2, [r7, #4]
  MODIFY_REG(GPIOx->MODER, (GPIO_MODER_MODER0 << (POSITION_VAL(Pin) * 2U)), (Mode << (POSITION_VAL(Pin) * 2U)));
 800103a:	68fb      	ldr	r3, [r7, #12]
 800103c:	681a      	ldr	r2, [r3, #0]
 800103e:	68bb      	ldr	r3, [r7, #8]
 8001040:	617b      	str	r3, [r7, #20]
  uint32_t result;

#if ((defined (__ARM_ARCH_7M__      ) && (__ARM_ARCH_7M__      == 1)) || \
     (defined (__ARM_ARCH_7EM__     ) && (__ARM_ARCH_7EM__     == 1)) || \
     (defined (__ARM_ARCH_8M_MAIN__ ) && (__ARM_ARCH_8M_MAIN__ == 1))    )
   __ASM volatile ("rbit %0, %1" : "=r" (result) : "r" (value) );
 8001042:	697b      	ldr	r3, [r7, #20]
 8001044:	fa93 f3a3 	rbit	r3, r3
 8001048:	613b      	str	r3, [r7, #16]
    result |= value & 1U;
    s--;
  }
  result <<= s;                        /* shift when v's highest bits are zero */
#endif
  return result;
 800104a:	693b      	ldr	r3, [r7, #16]
 800104c:	fab3 f383 	clz	r3, r3
 8001050:	b2db      	uxtb	r3, r3
 8001052:	005b      	lsls	r3, r3, #1
 8001054:	2103      	movs	r1, #3
 8001056:	fa01 f303 	lsl.w	r3, r1, r3
 800105a:	43db      	mvns	r3, r3
 800105c:	401a      	ands	r2, r3
 800105e:	68bb      	ldr	r3, [r7, #8]
 8001060:	61fb      	str	r3, [r7, #28]
   __ASM volatile ("rbit %0, %1" : "=r" (result) : "r" (value) );
 8001062:	69fb      	ldr	r3, [r7, #28]
 8001064:	fa93 f3a3 	rbit	r3, r3
 8001068:	61bb      	str	r3, [r7, #24]
  return result;
 800106a:	69bb      	ldr	r3, [r7, #24]
 800106c:	fab3 f383 	clz	r3, r3
 8001070:	b2db      	uxtb	r3, r3
 8001072:	005b      	lsls	r3, r3, #1
 8001074:	6879      	ldr	r1, [r7, #4]
 8001076:	fa01 f303 	lsl.w	r3, r1, r3
 800107a:	431a      	orrs	r2, r3
 800107c:	68fb      	ldr	r3, [r7, #12]
 800107e:	601a      	str	r2, [r3, #0]
}
 8001080:	bf00      	nop
 8001082:	3724      	adds	r7, #36	; 0x24
 8001084:	46bd      	mov	sp, r7
 8001086:	f85d 7b04 	ldr.w	r7, [sp], #4
 800108a:	4770      	bx	lr

0800108c <LL_GPIO_SetPinOutputType>:
{
 800108c:	b480      	push	{r7}
 800108e:	b085      	sub	sp, #20
 8001090:	af00      	add	r7, sp, #0
 8001092:	60f8      	str	r0, [r7, #12]
 8001094:	60b9      	str	r1, [r7, #8]
 8001096:	607a      	str	r2, [r7, #4]
  MODIFY_REG(GPIOx->OTYPER, PinMask, (PinMask * OutputType));
 8001098:	68fb      	ldr	r3, [r7, #12]
 800109a:	685a      	ldr	r2, [r3, #4]
 800109c:	68bb      	ldr	r3, [r7, #8]
 800109e:	43db      	mvns	r3, r3
 80010a0:	401a      	ands	r2, r3
 80010a2:	68bb      	ldr	r3, [r7, #8]
 80010a4:	6879      	ldr	r1, [r7, #4]
 80010a6:	fb01 f303 	mul.w	r3, r1, r3
 80010aa:	431a      	orrs	r2, r3
 80010ac:	68fb      	ldr	r3, [r7, #12]
 80010ae:	605a      	str	r2, [r3, #4]
}
 80010b0:	bf00      	nop
 80010b2:	3714      	adds	r7, #20
 80010b4:	46bd      	mov	sp, r7
 80010b6:	f85d 7b04 	ldr.w	r7, [sp], #4
 80010ba:	4770      	bx	lr

080010bc <LL_GPIO_SetPinSpeed>:
{
 80010bc:	b480      	push	{r7}
 80010be:	b089      	sub	sp, #36	; 0x24
 80010c0:	af00      	add	r7, sp, #0
 80010c2:	60f8      	str	r0, [r7, #12]
 80010c4:	60b9      	str	r1, [r7, #8]
 80010c6:	607a      	str	r2, [r7, #4]
  MODIFY_REG(GPIOx->OSPEEDR, (GPIO_OSPEEDER_OSPEEDR0 << (POSITION_VAL(Pin) * 2U)),
 80010c8:	68fb      	ldr	r3, [r7, #12]
 80010ca:	689a      	ldr	r2, [r3, #8]
 80010cc:	68bb      	ldr	r3, [r7, #8]
 80010ce:	617b      	str	r3, [r7, #20]
   __ASM volatile ("rbit %0, %1" : "=r" (result) : "r" (value) );
 80010d0:	697b      	ldr	r3, [r7, #20]
 80010d2:	fa93 f3a3 	rbit	r3, r3
 80010d6:	613b      	str	r3, [r7, #16]
  return result;
 80010d8:	693b      	ldr	r3, [r7, #16]
 80010da:	fab3 f383 	clz	r3, r3
 80010de:	b2db      	uxtb	r3, r3
 80010e0:	005b      	lsls	r3, r3, #1
 80010e2:	2103      	movs	r1, #3
 80010e4:	fa01 f303 	lsl.w	r3, r1, r3
 80010e8:	43db      	mvns	r3, r3
 80010ea:	401a      	ands	r2, r3
 80010ec:	68bb      	ldr	r3, [r7, #8]
 80010ee:	61fb      	str	r3, [r7, #28]
   __ASM volatile ("rbit %0, %1" : "=r" (result) : "r" (value) );
 80010f0:	69fb      	ldr	r3, [r7, #28]
 80010f2:	fa93 f3a3 	rbit	r3, r3
 80010f6:	61bb      	str	r3, [r7, #24]
  return result;
 80010f8:	69bb      	ldr	r3, [r7, #24]
 80010fa:	fab3 f383 	clz	r3, r3
 80010fe:	b2db      	uxtb	r3, r3
 8001100:	005b      	lsls	r3, r3, #1
 8001102:	6879      	ldr	r1, [r7, #4]
 8001104:	fa01 f303 	lsl.w	r3, r1, r3
 8001108:	431a      	orrs	r2, r3
 800110a:	68fb      	ldr	r3, [r7, #12]
 800110c:	609a      	str	r2, [r3, #8]
}
 800110e:	bf00      	nop
 8001110:	3724      	adds	r7, #36	; 0x24
 8001112:	46bd      	mov	sp, r7
 8001114:	f85d 7b04 	ldr.w	r7, [sp], #4
 8001118:	4770      	bx	lr

0800111a <LL_GPIO_SetPinPull>:
{
 800111a:	b480      	push	{r7}
 800111c:	b089      	sub	sp, #36	; 0x24
 800111e:	af00      	add	r7, sp, #0
 8001120:	60f8      	str	r0, [r7, #12]
 8001122:	60b9      	str	r1, [r7, #8]
 8001124:	607a      	str	r2, [r7, #4]
  MODIFY_REG(GPIOx->PUPDR, (GPIO_PUPDR_PUPDR0 << (POSITION_VAL(Pin) * 2U)), (Pull << (POSITION_VAL(Pin) * 2U)));
 8001126:	68fb      	ldr	r3, [r7, #12]
 8001128:	68da      	ldr	r2, [r3, #12]
 800112a:	68bb      	ldr	r3, [r7, #8]
 800112c:	617b      	str	r3, [r7, #20]
   __ASM volatile ("rbit %0, %1" : "=r" (result) : "r" (value) );
 800112e:	697b      	ldr	r3, [r7, #20]
 8001130:	fa93 f3a3 	rbit	r3, r3
 8001134:	613b      	str	r3, [r7, #16]
  return result;
 8001136:	693b      	ldr	r3, [r7, #16]
 8001138:	fab3 f383 	clz	r3, r3
 800113c:	b2db      	uxtb	r3, r3
 800113e:	005b      	lsls	r3, r3, #1
 8001140:	2103      	movs	r1, #3
 8001142:	fa01 f303 	lsl.w	r3, r1, r3
 8001146:	43db      	mvns	r3, r3
 8001148:	401a      	ands	r2, r3
 800114a:	68bb      	ldr	r3, [r7, #8]
 800114c:	61fb      	str	r3, [r7, #28]
   __ASM volatile ("rbit %0, %1" : "=r" (result) : "r" (value) );
 800114e:	69fb      	ldr	r3, [r7, #28]
 8001150:	fa93 f3a3 	rbit	r3, r3
 8001154:	61bb      	str	r3, [r7, #24]
  return result;
 8001156:	69bb      	ldr	r3, [r7, #24]
 8001158:	fab3 f383 	clz	r3, r3
 800115c:	b2db      	uxtb	r3, r3
 800115e:	005b      	lsls	r3, r3, #1
 8001160:	6879      	ldr	r1, [r7, #4]
 8001162:	fa01 f303 	lsl.w	r3, r1, r3
 8001166:	431a      	orrs	r2, r3
 8001168:	68fb      	ldr	r3, [r7, #12]
 800116a:	60da      	str	r2, [r3, #12]
}
 800116c:	bf00      	nop
 800116e:	3724      	adds	r7, #36	; 0x24
 8001170:	46bd      	mov	sp, r7
 8001172:	f85d 7b04 	ldr.w	r7, [sp], #4
 8001176:	4770      	bx	lr

08001178 <LL_GPIO_SetAFPin_0_7>:
{
 8001178:	b480      	push	{r7}
 800117a:	b089      	sub	sp, #36	; 0x24
 800117c:	af00      	add	r7, sp, #0
 800117e:	60f8      	str	r0, [r7, #12]
 8001180:	60b9      	str	r1, [r7, #8]
 8001182:	607a      	str	r2, [r7, #4]
  MODIFY_REG(GPIOx->AFR[0], (GPIO_AFRL_AFRL0 << (POSITION_VAL(Pin) * 4U)),
 8001184:	68fb      	ldr	r3, [r7, #12]
 8001186:	6a1a      	ldr	r2, [r3, #32]
 8001188:	68bb      	ldr	r3, [r7, #8]
 800118a:	617b      	str	r3, [r7, #20]
   __ASM volatile ("rbit %0, %1" : "=r" (result) : "r" (value) );
 800118c:	697b      	ldr	r3, [r7, #20]
 800118e:	fa93 f3a3 	rbit	r3, r3
 8001192:	613b      	str	r3, [r7, #16]
  return result;
 8001194:	693b      	ldr	r3, [r7, #16]
 8001196:	fab3 f383 	clz	r3, r3
 800119a:	b2db      	uxtb	r3, r3
 800119c:	009b      	lsls	r3, r3, #2
 800119e:	210f      	movs	r1, #15
 80011a0:	fa01 f303 	lsl.w	r3, r1, r3
 80011a4:	43db      	mvns	r3, r3
 80011a6:	401a      	ands	r2, r3
 80011a8:	68bb      	ldr	r3, [r7, #8]
 80011aa:	61fb      	str	r3, [r7, #28]
   __ASM volatile ("rbit %0, %1" : "=r" (result) : "r" (value) );
 80011ac:	69fb      	ldr	r3, [r7, #28]
 80011ae:	fa93 f3a3 	rbit	r3, r3
 80011b2:	61bb      	str	r3, [r7, #24]
  return result;
 80011b4:	69bb      	ldr	r3, [r7, #24]
 80011b6:	fab3 f383 	clz	r3, r3
 80011ba:	b2db      	uxtb	r3, r3
 80011bc:	009b      	lsls	r3, r3, #2
 80011be:	6879      	ldr	r1, [r7, #4]
 80011c0:	fa01 f303 	lsl.w	r3, r1, r3
 80011c4:	431a      	orrs	r2, r3
 80011c6:	68fb      	ldr	r3, [r7, #12]
 80011c8:	621a      	str	r2, [r3, #32]
}
 80011ca:	bf00      	nop
 80011cc:	3724      	adds	r7, #36	; 0x24
 80011ce:	46bd      	mov	sp, r7
 80011d0:	f85d 7b04 	ldr.w	r7, [sp], #4
 80011d4:	4770      	bx	lr

080011d6 <LL_GPIO_SetAFPin_8_15>:
{
 80011d6:	b480      	push	{r7}
 80011d8:	b089      	sub	sp, #36	; 0x24
 80011da:	af00      	add	r7, sp, #0
 80011dc:	60f8      	str	r0, [r7, #12]
 80011de:	60b9      	str	r1, [r7, #8]
 80011e0:	607a      	str	r2, [r7, #4]
  MODIFY_REG(GPIOx->AFR[1], (GPIO_AFRH_AFRH0 << (POSITION_VAL(Pin >> 8U) * 4U)),
 80011e2:	68fb      	ldr	r3, [r7, #12]
 80011e4:	6a5a      	ldr	r2, [r3, #36]	; 0x24
 80011e6:	68bb      	ldr	r3, [r7, #8]
 80011e8:	0a1b      	lsrs	r3, r3, #8
 80011ea:	617b      	str	r3, [r7, #20]
   __ASM volatile ("rbit %0, %1" : "=r" (result) : "r" (value) );
 80011ec:	697b      	ldr	r3, [r7, #20]
 80011ee:	fa93 f3a3 	rbit	r3, r3
 80011f2:	613b      	str	r3, [r7, #16]
  return result;
 80011f4:	693b      	ldr	r3, [r7, #16]
 80011f6:	fab3 f383 	clz	r3, r3
 80011fa:	b2db      	uxtb	r3, r3
 80011fc:	009b      	lsls	r3, r3, #2
 80011fe:	210f      	movs	r1, #15
 8001200:	fa01 f303 	lsl.w	r3, r1, r3
 8001204:	43db      	mvns	r3, r3
 8001206:	401a      	ands	r2, r3
 8001208:	68bb      	ldr	r3, [r7, #8]
 800120a:	0a1b      	lsrs	r3, r3, #8
 800120c:	61fb      	str	r3, [r7, #28]
   __ASM volatile ("rbit %0, %1" : "=r" (result) : "r" (value) );
 800120e:	69fb      	ldr	r3, [r7, #28]
 8001210:	fa93 f3a3 	rbit	r3, r3
 8001214:	61bb      	str	r3, [r7, #24]
  return result;
 8001216:	69bb      	ldr	r3, [r7, #24]
 8001218:	fab3 f383 	clz	r3, r3
 800121c:	b2db      	uxtb	r3, r3
 800121e:	009b      	lsls	r3, r3, #2
 8001220:	6879      	ldr	r1, [r7, #4]
 8001222:	fa01 f303 	lsl.w	r3, r1, r3
 8001226:	431a      	orrs	r2, r3
 8001228:	68fb      	ldr	r3, [r7, #12]
 800122a:	625a      	str	r2, [r3, #36]	; 0x24
}
 800122c:	bf00      	nop
 800122e:	3724      	adds	r7, #36	; 0x24
 8001230:	46bd      	mov	sp, r7
 8001232:	f85d 7b04 	ldr.w	r7, [sp], #4
 8001236:	4770      	bx	lr

08001238 <LL_GPIO_Init>:
  * @retval An ErrorStatus enumeration value:
  *          - SUCCESS: GPIO registers are initialized according to GPIO_InitStruct content
  *          - ERROR:   Not applicable
  */
ErrorStatus LL_GPIO_Init(GPIO_TypeDef *GPIOx, LL_GPIO_InitTypeDef *GPIO_InitStruct)
{
 8001238:	b580      	push	{r7, lr}
 800123a:	b088      	sub	sp, #32
 800123c:	af00      	add	r7, sp, #0
 800123e:	6078      	str	r0, [r7, #4]
 8001240:	6039      	str	r1, [r7, #0]
  assert_param(IS_LL_GPIO_MODE(GPIO_InitStruct->Mode));
  assert_param(IS_LL_GPIO_PULL(GPIO_InitStruct->Pull));

  /* ------------------------- Configure the port pins ---------------- */
  /* Initialize  pinpos on first pin set */
  pinpos = POSITION_VAL(GPIO_InitStruct->Pin);
 8001242:	683b      	ldr	r3, [r7, #0]
 8001244:	681b      	ldr	r3, [r3, #0]
 8001246:	617b      	str	r3, [r7, #20]
   __ASM volatile ("rbit %0, %1" : "=r" (result) : "r" (value) );
 8001248:	697b      	ldr	r3, [r7, #20]
 800124a:	fa93 f3a3 	rbit	r3, r3
 800124e:	613b      	str	r3, [r7, #16]
  return result;
 8001250:	693b      	ldr	r3, [r7, #16]
 8001252:	fab3 f383 	clz	r3, r3
 8001256:	b2db      	uxtb	r3, r3
 8001258:	61fb      	str	r3, [r7, #28]

  /* Configure the port pins */
  while (((GPIO_InitStruct->Pin) >> pinpos) != 0x00u)
 800125a:	e051      	b.n	8001300 <LL_GPIO_Init+0xc8>
  {
    /* Get current io position */
    currentpin = (GPIO_InitStruct->Pin) & (0x00000001uL << pinpos);
 800125c:	683b      	ldr	r3, [r7, #0]
 800125e:	681a      	ldr	r2, [r3, #0]
 8001260:	2101      	movs	r1, #1
 8001262:	69fb      	ldr	r3, [r7, #28]
 8001264:	fa01 f303 	lsl.w	r3, r1, r3
 8001268:	4013      	ands	r3, r2
 800126a:	61bb      	str	r3, [r7, #24]

    if (currentpin != 0x00u)
 800126c:	69bb      	ldr	r3, [r7, #24]
 800126e:	2b00      	cmp	r3, #0
 8001270:	d043      	beq.n	80012fa <LL_GPIO_Init+0xc2>
    {
      if ((GPIO_InitStruct->Mode == LL_GPIO_MODE_OUTPUT) || (GPIO_InitStruct->Mode == LL_GPIO_MODE_ALTERNATE))
 8001272:	683b      	ldr	r3, [r7, #0]
 8001274:	685b      	ldr	r3, [r3, #4]
 8001276:	2b01      	cmp	r3, #1
 8001278:	d003      	beq.n	8001282 <LL_GPIO_Init+0x4a>
 800127a:	683b      	ldr	r3, [r7, #0]
 800127c:	685b      	ldr	r3, [r3, #4]
 800127e:	2b02      	cmp	r3, #2
 8001280:	d10e      	bne.n	80012a0 <LL_GPIO_Init+0x68>
      {
        /* Check Speed mode parameters */
        assert_param(IS_LL_GPIO_SPEED(GPIO_InitStruct->Speed));

        /* Speed mode configuration */
        LL_GPIO_SetPinSpeed(GPIOx, currentpin, GPIO_InitStruct->Speed);
 8001282:	683b      	ldr	r3, [r7, #0]
 8001284:	689b      	ldr	r3, [r3, #8]
 8001286:	461a      	mov	r2, r3
 8001288:	69b9      	ldr	r1, [r7, #24]
 800128a:	6878      	ldr	r0, [r7, #4]
 800128c:	f7ff ff16 	bl	80010bc <LL_GPIO_SetPinSpeed>

        /* Check Output mode parameters */
        assert_param(IS_LL_GPIO_OUTPUT_TYPE(GPIO_InitStruct->OutputType));

        /* Output mode configuration*/
        LL_GPIO_SetPinOutputType(GPIOx, GPIO_InitStruct->Pin, GPIO_InitStruct->OutputType);
 8001290:	683b      	ldr	r3, [r7, #0]
 8001292:	6819      	ldr	r1, [r3, #0]
 8001294:	683b      	ldr	r3, [r7, #0]
 8001296:	68db      	ldr	r3, [r3, #12]
 8001298:	461a      	mov	r2, r3
 800129a:	6878      	ldr	r0, [r7, #4]
 800129c:	f7ff fef6 	bl	800108c <LL_GPIO_SetPinOutputType>
      }

      /* Pull-up Pull down resistor configuration*/
      LL_GPIO_SetPinPull(GPIOx, currentpin, GPIO_InitStruct->Pull);
 80012a0:	683b      	ldr	r3, [r7, #0]
 80012a2:	691b      	ldr	r3, [r3, #16]
 80012a4:	461a      	mov	r2, r3
 80012a6:	69b9      	ldr	r1, [r7, #24]
 80012a8:	6878      	ldr	r0, [r7, #4]
 80012aa:	f7ff ff36 	bl	800111a <LL_GPIO_SetPinPull>

      if (GPIO_InitStruct->Mode == LL_GPIO_MODE_ALTERNATE)
 80012ae:	683b      	ldr	r3, [r7, #0]
 80012b0:	685b      	ldr	r3, [r3, #4]
 80012b2:	2b02      	cmp	r3, #2
 80012b4:	d11a      	bne.n	80012ec <LL_GPIO_Init+0xb4>
 80012b6:	69bb      	ldr	r3, [r7, #24]
 80012b8:	60fb      	str	r3, [r7, #12]
   __ASM volatile ("rbit %0, %1" : "=r" (result) : "r" (value) );
 80012ba:	68fb      	ldr	r3, [r7, #12]
 80012bc:	fa93 f3a3 	rbit	r3, r3
 80012c0:	60bb      	str	r3, [r7, #8]
  return result;
 80012c2:	68bb      	ldr	r3, [r7, #8]
      {
        /* Check Alternate parameter */
        assert_param(IS_LL_GPIO_ALTERNATE(GPIO_InitStruct->Alternate));

        /* Speed mode configuration */
        if (POSITION_VAL(currentpin) < 0x00000008U)
 80012c4:	fab3 f383 	clz	r3, r3
 80012c8:	b2db      	uxtb	r3, r3
 80012ca:	2b07      	cmp	r3, #7
 80012cc:	d807      	bhi.n	80012de <LL_GPIO_Init+0xa6>
        {
          LL_GPIO_SetAFPin_0_7(GPIOx, currentpin, GPIO_InitStruct->Alternate);
 80012ce:	683b      	ldr	r3, [r7, #0]
 80012d0:	695b      	ldr	r3, [r3, #20]
 80012d2:	461a      	mov	r2, r3
 80012d4:	69b9      	ldr	r1, [r7, #24]
 80012d6:	6878      	ldr	r0, [r7, #4]
 80012d8:	f7ff ff4e 	bl	8001178 <LL_GPIO_SetAFPin_0_7>
 80012dc:	e006      	b.n	80012ec <LL_GPIO_Init+0xb4>
        }
        else
        {
          LL_GPIO_SetAFPin_8_15(GPIOx, currentpin, GPIO_InitStruct->Alternate);
 80012de:	683b      	ldr	r3, [r7, #0]
 80012e0:	695b      	ldr	r3, [r3, #20]
 80012e2:	461a      	mov	r2, r3
 80012e4:	69b9      	ldr	r1, [r7, #24]
 80012e6:	6878      	ldr	r0, [r7, #4]
 80012e8:	f7ff ff75 	bl	80011d6 <LL_GPIO_SetAFPin_8_15>
        }
      }

      /* Pin Mode configuration */
      LL_GPIO_SetPinMode(GPIOx, currentpin, GPIO_InitStruct->Mode);
 80012ec:	683b      	ldr	r3, [r7, #0]
 80012ee:	685b      	ldr	r3, [r3, #4]
 80012f0:	461a      	mov	r2, r3
 80012f2:	69b9      	ldr	r1, [r7, #24]
 80012f4:	6878      	ldr	r0, [r7, #4]
 80012f6:	f7ff fe9a 	bl	800102e <LL_GPIO_SetPinMode>
    }
    pinpos++;
 80012fa:	69fb      	ldr	r3, [r7, #28]
 80012fc:	3301      	adds	r3, #1
 80012fe:	61fb      	str	r3, [r7, #28]
  while (((GPIO_InitStruct->Pin) >> pinpos) != 0x00u)
 8001300:	683b      	ldr	r3, [r7, #0]
 8001302:	681a      	ldr	r2, [r3, #0]
 8001304:	69fb      	ldr	r3, [r7, #28]
 8001306:	fa22 f303 	lsr.w	r3, r2, r3
 800130a:	2b00      	cmp	r3, #0
 800130c:	d1a6      	bne.n	800125c <LL_GPIO_Init+0x24>
  }

  return (SUCCESS);
 800130e:	2300      	movs	r3, #0
}
 8001310:	4618      	mov	r0, r3
 8001312:	3720      	adds	r7, #32
 8001314:	46bd      	mov	sp, r7
 8001316:	bd80      	pop	{r7, pc}

08001318 <LL_TIM_SetPrescaler>:
{
 8001318:	b480      	push	{r7}
 800131a:	b083      	sub	sp, #12
 800131c:	af00      	add	r7, sp, #0
 800131e:	6078      	str	r0, [r7, #4]
 8001320:	6039      	str	r1, [r7, #0]
  WRITE_REG(TIMx->PSC, Prescaler);
 8001322:	687b      	ldr	r3, [r7, #4]
 8001324:	683a      	ldr	r2, [r7, #0]
 8001326:	629a      	str	r2, [r3, #40]	; 0x28
}
 8001328:	bf00      	nop
 800132a:	370c      	adds	r7, #12
 800132c:	46bd      	mov	sp, r7
 800132e:	f85d 7b04 	ldr.w	r7, [sp], #4
 8001332:	4770      	bx	lr

08001334 <LL_TIM_SetAutoReload>:
{
 8001334:	b480      	push	{r7}
 8001336:	b083      	sub	sp, #12
 8001338:	af00      	add	r7, sp, #0
 800133a:	6078      	str	r0, [r7, #4]
 800133c:	6039      	str	r1, [r7, #0]
  WRITE_REG(TIMx->ARR, AutoReload);
 800133e:	687b      	ldr	r3, [r7, #4]
 8001340:	683a      	ldr	r2, [r7, #0]
 8001342:	62da      	str	r2, [r3, #44]	; 0x2c
}
 8001344:	bf00      	nop
 8001346:	370c      	adds	r7, #12
 8001348:	46bd      	mov	sp, r7
 800134a:	f85d 7b04 	ldr.w	r7, [sp], #4
 800134e:	4770      	bx	lr

08001350 <LL_TIM_SetRepetitionCounter>:
{
 8001350:	b480      	push	{r7}
 8001352:	b083      	sub	sp, #12
 8001354:	af00      	add	r7, sp, #0
 8001356:	6078      	str	r0, [r7, #4]
 8001358:	6039      	str	r1, [r7, #0]
  WRITE_REG(TIMx->RCR, RepetitionCounter);
 800135a:	687b      	ldr	r3, [r7, #4]
 800135c:	683a      	ldr	r2, [r7, #0]
 800135e:	631a      	str	r2, [r3, #48]	; 0x30
}
 8001360:	bf00      	nop
 8001362:	370c      	adds	r7, #12
 8001364:	46bd      	mov	sp, r7
 8001366:	f85d 7b04 	ldr.w	r7, [sp], #4
 800136a:	4770      	bx	lr

0800136c <LL_TIM_GenerateEvent_UPDATE>:
  * @rmtoll EGR          UG            LL_TIM_GenerateEvent_UPDATE
  * @param  TIMx Timer instance
  * @retval None
  */
__STATIC_INLINE void LL_TIM_GenerateEvent_UPDATE(TIM_TypeDef *TIMx)
{
 800136c:	b480      	push	{r7}
 800136e:	b083      	sub	sp, #12
 8001370:	af00      	add	r7, sp, #0
 8001372:	6078      	str	r0, [r7, #4]
  SET_BIT(TIMx->EGR, TIM_EGR_UG);
 8001374:	687b      	ldr	r3, [r7, #4]
 8001376:	695b      	ldr	r3, [r3, #20]
 8001378:	f043 0201 	orr.w	r2, r3, #1
 800137c:	687b      	ldr	r3, [r7, #4]
 800137e:	615a      	str	r2, [r3, #20]
}
 8001380:	bf00      	nop
 8001382:	370c      	adds	r7, #12
 8001384:	46bd      	mov	sp, r7
 8001386:	f85d 7b04 	ldr.w	r7, [sp], #4
 800138a:	4770      	bx	lr

0800138c <LL_TIM_Init>:
  * @retval An ErrorStatus enumeration value:
  *          - SUCCESS: TIMx registers are de-initialized
  *          - ERROR: not applicable
  */
ErrorStatus LL_TIM_Init(TIM_TypeDef *TIMx, LL_TIM_InitTypeDef *TIM_InitStruct)
{
 800138c:	b580      	push	{r7, lr}
 800138e:	b084      	sub	sp, #16
 8001390:	af00      	add	r7, sp, #0
 8001392:	6078      	str	r0, [r7, #4]
 8001394:	6039      	str	r1, [r7, #0]
  /* Check the parameters */
  assert_param(IS_TIM_INSTANCE(TIMx));
  assert_param(IS_LL_TIM_COUNTERMODE(TIM_InitStruct->CounterMode));
  assert_param(IS_LL_TIM_CLOCKDIVISION(TIM_InitStruct->ClockDivision));

  tmpcr1 = LL_TIM_ReadReg(TIMx, CR1);
 8001396:	687b      	ldr	r3, [r7, #4]
 8001398:	681b      	ldr	r3, [r3, #0]
 800139a:	60fb      	str	r3, [r7, #12]

  if (IS_TIM_COUNTER_MODE_SELECT_INSTANCE(TIMx))
 800139c:	687b      	ldr	r3, [r7, #4]
 800139e:	4a2f      	ldr	r2, [pc, #188]	; (800145c <LL_TIM_Init+0xd0>)
 80013a0:	4293      	cmp	r3, r2
 80013a2:	d007      	beq.n	80013b4 <LL_TIM_Init+0x28>
 80013a4:	687b      	ldr	r3, [r7, #4]
 80013a6:	f1b3 4f80 	cmp.w	r3, #1073741824	; 0x40000000
 80013aa:	d003      	beq.n	80013b4 <LL_TIM_Init+0x28>
 80013ac:	687b      	ldr	r3, [r7, #4]
 80013ae:	4a2c      	ldr	r2, [pc, #176]	; (8001460 <LL_TIM_Init+0xd4>)
 80013b0:	4293      	cmp	r3, r2
 80013b2:	d106      	bne.n	80013c2 <LL_TIM_Init+0x36>
  {
    /* Select the Counter Mode */
    MODIFY_REG(tmpcr1, (TIM_CR1_DIR | TIM_CR1_CMS), TIM_InitStruct->CounterMode);
 80013b4:	68fb      	ldr	r3, [r7, #12]
 80013b6:	f023 0270 	bic.w	r2, r3, #112	; 0x70
 80013ba:	683b      	ldr	r3, [r7, #0]
 80013bc:	685b      	ldr	r3, [r3, #4]
 80013be:	4313      	orrs	r3, r2
 80013c0:	60fb      	str	r3, [r7, #12]
  }

  if (IS_TIM_CLOCK_DIVISION_INSTANCE(TIMx))
 80013c2:	687b      	ldr	r3, [r7, #4]
 80013c4:	4a25      	ldr	r2, [pc, #148]	; (800145c <LL_TIM_Init+0xd0>)
 80013c6:	4293      	cmp	r3, r2
 80013c8:	d013      	beq.n	80013f2 <LL_TIM_Init+0x66>
 80013ca:	687b      	ldr	r3, [r7, #4]
 80013cc:	f1b3 4f80 	cmp.w	r3, #1073741824	; 0x40000000
 80013d0:	d00f      	beq.n	80013f2 <LL_TIM_Init+0x66>
 80013d2:	687b      	ldr	r3, [r7, #4]
 80013d4:	4a22      	ldr	r2, [pc, #136]	; (8001460 <LL_TIM_Init+0xd4>)
 80013d6:	4293      	cmp	r3, r2
 80013d8:	d00b      	beq.n	80013f2 <LL_TIM_Init+0x66>
 80013da:	687b      	ldr	r3, [r7, #4]
 80013dc:	4a21      	ldr	r2, [pc, #132]	; (8001464 <LL_TIM_Init+0xd8>)
 80013de:	4293      	cmp	r3, r2
 80013e0:	d007      	beq.n	80013f2 <LL_TIM_Init+0x66>
 80013e2:	687b      	ldr	r3, [r7, #4]
 80013e4:	4a20      	ldr	r2, [pc, #128]	; (8001468 <LL_TIM_Init+0xdc>)
 80013e6:	4293      	cmp	r3, r2
 80013e8:	d003      	beq.n	80013f2 <LL_TIM_Init+0x66>
 80013ea:	687b      	ldr	r3, [r7, #4]
 80013ec:	4a1f      	ldr	r2, [pc, #124]	; (800146c <LL_TIM_Init+0xe0>)
 80013ee:	4293      	cmp	r3, r2
 80013f0:	d106      	bne.n	8001400 <LL_TIM_Init+0x74>
  {
    /* Set the clock division */
    MODIFY_REG(tmpcr1, TIM_CR1_CKD, TIM_InitStruct->ClockDivision);
 80013f2:	68fb      	ldr	r3, [r7, #12]
 80013f4:	f423 7240 	bic.w	r2, r3, #768	; 0x300
 80013f8:	683b      	ldr	r3, [r7, #0]
 80013fa:	68db      	ldr	r3, [r3, #12]
 80013fc:	4313      	orrs	r3, r2
 80013fe:	60fb      	str	r3, [r7, #12]
  }

  /* Write to TIMx CR1 */
  LL_TIM_WriteReg(TIMx, CR1, tmpcr1);
 8001400:	687b      	ldr	r3, [r7, #4]
 8001402:	68fa      	ldr	r2, [r7, #12]
 8001404:	601a      	str	r2, [r3, #0]

  /* Set the Autoreload value */
  LL_TIM_SetAutoReload(TIMx, TIM_InitStruct->Autoreload);
 8001406:	683b      	ldr	r3, [r7, #0]
 8001408:	689b      	ldr	r3, [r3, #8]
 800140a:	4619      	mov	r1, r3
 800140c:	6878      	ldr	r0, [r7, #4]
 800140e:	f7ff ff91 	bl	8001334 <LL_TIM_SetAutoReload>

  /* Set the Prescaler value */
  LL_TIM_SetPrescaler(TIMx, TIM_InitStruct->Prescaler);
 8001412:	683b      	ldr	r3, [r7, #0]
 8001414:	881b      	ldrh	r3, [r3, #0]
 8001416:	4619      	mov	r1, r3
 8001418:	6878      	ldr	r0, [r7, #4]
 800141a:	f7ff ff7d 	bl	8001318 <LL_TIM_SetPrescaler>

  if (IS_TIM_REPETITION_COUNTER_INSTANCE(TIMx))
 800141e:	687b      	ldr	r3, [r7, #4]
 8001420:	4a0e      	ldr	r2, [pc, #56]	; (800145c <LL_TIM_Init+0xd0>)
 8001422:	4293      	cmp	r3, r2
 8001424:	d00b      	beq.n	800143e <LL_TIM_Init+0xb2>
 8001426:	687b      	ldr	r3, [r7, #4]
 8001428:	4a0e      	ldr	r2, [pc, #56]	; (8001464 <LL_TIM_Init+0xd8>)
 800142a:	4293      	cmp	r3, r2
 800142c:	d007      	beq.n	800143e <LL_TIM_Init+0xb2>
 800142e:	687b      	ldr	r3, [r7, #4]
 8001430:	4a0d      	ldr	r2, [pc, #52]	; (8001468 <LL_TIM_Init+0xdc>)
 8001432:	4293      	cmp	r3, r2
 8001434:	d003      	beq.n	800143e <LL_TIM_Init+0xb2>
 8001436:	687b      	ldr	r3, [r7, #4]
 8001438:	4a0c      	ldr	r2, [pc, #48]	; (800146c <LL_TIM_Init+0xe0>)
 800143a:	4293      	cmp	r3, r2
 800143c:	d105      	bne.n	800144a <LL_TIM_Init+0xbe>
  {
    /* Set the Repetition Counter value */
    LL_TIM_SetRepetitionCounter(TIMx, TIM_InitStruct->RepetitionCounter);
 800143e:	683b      	ldr	r3, [r7, #0]
 8001440:	691b      	ldr	r3, [r3, #16]
 8001442:	4619      	mov	r1, r3
 8001444:	6878      	ldr	r0, [r7, #4]
 8001446:	f7ff ff83 	bl	8001350 <LL_TIM_SetRepetitionCounter>
  }

  /* Generate an update event to reload the Prescaler
     and the repetition counter value (if applicable) immediately */
  LL_TIM_GenerateEvent_UPDATE(TIMx);
 800144a:	6878      	ldr	r0, [r7, #4]
 800144c:	f7ff ff8e 	bl	800136c <LL_TIM_GenerateEvent_UPDATE>

  return SUCCESS;
 8001450:	2300      	movs	r3, #0
}
 8001452:	4618      	mov	r0, r3
 8001454:	3710      	adds	r7, #16
 8001456:	46bd      	mov	sp, r7
 8001458:	bd80      	pop	{r7, pc}
 800145a:	bf00      	nop
 800145c:	40012c00 	.word	0x40012c00
 8001460:	40000400 	.word	0x40000400
 8001464:	40014000 	.word	0x40014000
 8001468:	40014400 	.word	0x40014400
 800146c:	40014800 	.word	0x40014800

08001470 <LL_InitTick>:
  *         configuration by calling this function, for a delay use rather osDelay RTOS service.
  * @param  Ticks Number of ticks
  * @retval None
  */
__STATIC_INLINE void LL_InitTick(uint32_t HCLKFrequency, uint32_t Ticks)
{
 8001470:	b480      	push	{r7}
 8001472:	b083      	sub	sp, #12
 8001474:	af00      	add	r7, sp, #0
 8001476:	6078      	str	r0, [r7, #4]
 8001478:	6039      	str	r1, [r7, #0]
  /* Configure the SysTick to have interrupt in 1ms time base */
  SysTick->LOAD  = (uint32_t)((HCLKFrequency / Ticks) - 1UL);  /* set reload register */
 800147a:	687a      	ldr	r2, [r7, #4]
 800147c:	683b      	ldr	r3, [r7, #0]
 800147e:	fbb2 f3f3 	udiv	r3, r2, r3
 8001482:	4a07      	ldr	r2, [pc, #28]	; (80014a0 <LL_InitTick+0x30>)
 8001484:	3b01      	subs	r3, #1
 8001486:	6053      	str	r3, [r2, #4]
  SysTick->VAL   = 0UL;                                       /* Load the SysTick Counter Value */
 8001488:	4b05      	ldr	r3, [pc, #20]	; (80014a0 <LL_InitTick+0x30>)
 800148a:	2200      	movs	r2, #0
 800148c:	609a      	str	r2, [r3, #8]
  SysTick->CTRL  = SysTick_CTRL_CLKSOURCE_Msk |
 800148e:	4b04      	ldr	r3, [pc, #16]	; (80014a0 <LL_InitTick+0x30>)
 8001490:	2205      	movs	r2, #5
 8001492:	601a      	str	r2, [r3, #0]
                   SysTick_CTRL_ENABLE_Msk;                   /* Enable the Systick Timer */
}
 8001494:	bf00      	nop
 8001496:	370c      	adds	r7, #12
 8001498:	46bd      	mov	sp, r7
 800149a:	f85d 7b04 	ldr.w	r7, [sp], #4
 800149e:	4770      	bx	lr
 80014a0:	e000e010 	.word	0xe000e010

080014a4 <LL_Init1msTick>:
  * @param  HCLKFrequency HCLK frequency in Hz
  * @note   HCLK frequency can be calculated thanks to RCC helper macro or function @ref LL_RCC_GetSystemClocksFreq
  * @retval None
  */
void LL_Init1msTick(uint32_t HCLKFrequency)
{
 80014a4:	b580      	push	{r7, lr}
 80014a6:	b082      	sub	sp, #8
 80014a8:	af00      	add	r7, sp, #0
 80014aa:	6078      	str	r0, [r7, #4]
  /* Use frequency provided in argument */
  LL_InitTick(HCLKFrequency, 1000U);
 80014ac:	f44f 717a 	mov.w	r1, #1000	; 0x3e8
 80014b0:	6878      	ldr	r0, [r7, #4]
 80014b2:	f7ff ffdd 	bl	8001470 <LL_InitTick>
}
 80014b6:	bf00      	nop
 80014b8:	3708      	adds	r7, #8
 80014ba:	46bd      	mov	sp, r7
 80014bc:	bd80      	pop	{r7, pc}
	...

080014c0 <LL_SetSystemCoreClock>:
  * @note   Variable can be calculated also through SystemCoreClockUpdate function.
  * @param  HCLKFrequency HCLK frequency in Hz (can be calculated thanks to RCC helper macro)
  * @retval None
  */
void LL_SetSystemCoreClock(uint32_t HCLKFrequency)
{
 80014c0:	b480      	push	{r7}
 80014c2:	b083      	sub	sp, #12
 80014c4:	af00      	add	r7, sp, #0
 80014c6:	6078      	str	r0, [r7, #4]
  /* HCLK clock frequency */
  SystemCoreClock = HCLKFrequency;
 80014c8:	4a04      	ldr	r2, [pc, #16]	; (80014dc <LL_SetSystemCoreClock+0x1c>)
 80014ca:	687b      	ldr	r3, [r7, #4]
 80014cc:	6013      	str	r3, [r2, #0]
}
 80014ce:	bf00      	nop
 80014d0:	370c      	adds	r7, #12
 80014d2:	46bd      	mov	sp, r7
 80014d4:	f85d 7b04 	ldr.w	r7, [sp], #4
 80014d8:	4770      	bx	lr
 80014da:	bf00      	nop
 80014dc:	20000000 	.word	0x20000000

080014e0 <__libc_init_array>:
 80014e0:	b570      	push	{r4, r5, r6, lr}
 80014e2:	4d0d      	ldr	r5, [pc, #52]	; (8001518 <__libc_init_array+0x38>)
 80014e4:	4c0d      	ldr	r4, [pc, #52]	; (800151c <__libc_init_array+0x3c>)
 80014e6:	1b64      	subs	r4, r4, r5
 80014e8:	10a4      	asrs	r4, r4, #2
 80014ea:	2600      	movs	r6, #0
 80014ec:	42a6      	cmp	r6, r4
 80014ee:	d109      	bne.n	8001504 <__libc_init_array+0x24>
 80014f0:	4d0b      	ldr	r5, [pc, #44]	; (8001520 <__libc_init_array+0x40>)
 80014f2:	4c0c      	ldr	r4, [pc, #48]	; (8001524 <__libc_init_array+0x44>)
 80014f4:	f000 f818 	bl	8001528 <_init>
 80014f8:	1b64      	subs	r4, r4, r5
 80014fa:	10a4      	asrs	r4, r4, #2
 80014fc:	2600      	movs	r6, #0
 80014fe:	42a6      	cmp	r6, r4
 8001500:	d105      	bne.n	800150e <__libc_init_array+0x2e>
 8001502:	bd70      	pop	{r4, r5, r6, pc}
 8001504:	f855 3b04 	ldr.w	r3, [r5], #4
 8001508:	4798      	blx	r3
 800150a:	3601      	adds	r6, #1
 800150c:	e7ee      	b.n	80014ec <__libc_init_array+0xc>
 800150e:	f855 3b04 	ldr.w	r3, [r5], #4
 8001512:	4798      	blx	r3
 8001514:	3601      	adds	r6, #1
 8001516:	e7f2      	b.n	80014fe <__libc_init_array+0x1e>
 8001518:	0800157c 	.word	0x0800157c
 800151c:	0800157c 	.word	0x0800157c
 8001520:	0800157c 	.word	0x0800157c
 8001524:	08001580 	.word	0x08001580

08001528 <_init>:
 8001528:	b5f8      	push	{r3, r4, r5, r6, r7, lr}
 800152a:	bf00      	nop
 800152c:	bcf8      	pop	{r3, r4, r5, r6, r7}
 800152e:	bc08      	pop	{r3}
 8001530:	469e      	mov	lr, r3
 8001532:	4770      	bx	lr

08001534 <_fini>:
 8001534:	b5f8      	push	{r3, r4, r5, r6, r7, lr}
 8001536:	bf00      	nop
 8001538:	bcf8      	pop	{r3, r4, r5, r6, r7}
 800153a:	bc08      	pop	{r3}
 800153c:	469e      	mov	lr, r3
 800153e:	4770      	bx	lr
